
../target/deploy/hello_world.so:	file format elf64-bpf

Disassembly of section .text:

0000000000000120 <.text>:
      36:	79 11 00 00 00 00 00 00	r1 = *(u64 *)(r1 + 0x0)
      37:	85 10 00 00 70 03 00 00	call 0x370
      38:	95 00 00 00 00 00 00 00	exit

0000000000000138 <entrypoint>:
      39:	bf 12 00 00 00 00 00 00	r2 = r1
      40:	bf a1 00 00 00 00 00 00	r1 = r10
      41:	07 01 00 00 d0 ff ff ff	r1 += -0x30
      42:	85 10 00 00 d4 00 00 00	call 0xd4
      43:	79 a6 e8 ff 00 00 00 00	r6 = *(u64 *)(r10 - 0x18)
      44:	79 a7 d8 ff 00 00 00 00	r7 = *(u64 *)(r10 - 0x28)
      45:	18 01 00 00 80 3e 00 00 00 00 00 00 00 00 00 00	r1 = 0x3e80 ll
      47:	b7 02 00 00 0d 00 00 00	r2 = 0xd
      48:	85 10 00 00 ff ff ff ff	call -0x1
      49:	15 06 05 00 00 00 00 00	if r6 == 0x0 goto +0x5 <entrypoint+0x80>
      50:	07 07 00 00 10 00 00 00	r7 += 0x10
      51:	05 00 05 00 00 00 00 00	goto +0x5 <entrypoint+0x90>
      52:	07 07 00 00 30 00 00 00	r7 += 0x30
      53:	07 06 00 00 ff ff ff ff	r6 += -0x1
      54:	55 06 02 00 00 00 00 00	if r6 != 0x0 goto +0x2 <entrypoint+0x90>
      55:	b7 00 00 00 00 00 00 00	r0 = 0x0
      56:	95 00 00 00 00 00 00 00	exit

      57:	79 71 00 00 00 00 00 00	r1 = *(u64 *)(r7 + 0x0)
      58:	79 72 f8 ff 00 00 00 00	r2 = *(u64 *)(r7 - 0x8)
      59:	79 23 00 00 00 00 00 00	r3 = *(u64 *)(r2 + 0x0)
      60:	07 03 00 00 ff ff ff ff	r3 += -0x1
      61:	7b 32 00 00 00 00 00 00	*(u64 *)(r2 + 0x0) = r3
      62:	55 03 03 00 00 00 00 00	if r3 != 0x0 goto +0x3 <entrypoint+0xd8>
      63:	79 23 08 00 00 00 00 00	r3 = *(u64 *)(r2 + 0x8)
      64:	07 03 00 00 ff ff ff ff	r3 += -0x1
      65:	7b 32 08 00 00 00 00 00	*(u64 *)(r2 + 0x8) = r3
      66:	79 12 00 00 00 00 00 00	r2 = *(u64 *)(r1 + 0x0)
      67:	07 02 00 00 ff ff ff ff	r2 += -0x1
      68:	7b 21 00 00 00 00 00 00	*(u64 *)(r1 + 0x0) = r2
      69:	55 02 ee ff 00 00 00 00	if r2 != 0x0 goto -0x12 <entrypoint+0x68>
      70:	79 12 08 00 00 00 00 00	r2 = *(u64 *)(r1 + 0x8)
      71:	07 02 00 00 ff ff ff ff	r2 += -0x1
      72:	7b 21 08 00 00 00 00 00	*(u64 *)(r1 + 0x8) = r2
      73:	05 00 ea ff 00 00 00 00	goto -0x16 <entrypoint+0x68>
      74:	18 03 00 00 00 00 00 00 00 00 00 00 03 00 00 00	r3 = 0x300000000 ll
      76:	79 33 00 00 00 00 00 00	r3 = *(u64 *)(r3 + 0x0)
      77:	18 04 00 00 00 80 00 00 00 00 00 00 03 00 00 00	r4 = 0x300008000 ll
      79:	15 03 01 00 00 00 00 00	if r3 == 0x0 goto +0x1 <entrypoint+0x150>
      80:	bf 34 00 00 00 00 00 00	r4 = r3
      81:	bf 43 00 00 00 00 00 00	r3 = r4
      82:	1f 13 00 00 00 00 00 00	r3 -= r1
      83:	b7 00 00 00 00 00 00 00	r0 = 0x0
      84:	b7 05 00 00 01 00 00 00	r5 = 0x1
      85:	2d 43 01 00 00 00 00 00	if r3 > r4 goto +0x1 <entrypoint+0x180>
      86:	b7 05 00 00 00 00 00 00	r5 = 0x0
      87:	b7 01 00 00 00 00 00 00	r1 = 0x0
      88:	55 05 01 00 00 00 00 00	if r5 != 0x0 goto +0x1 <entrypoint+0x198>
      89:	bf 31 00 00 00 00 00 00	r1 = r3
      90:	87 02 00 00 00 00 00 00	r2 = -r2
      91:	5f 21 00 00 00 00 00 00	r1 &= r2
      92:	18 02 00 00 08 00 00 00 00 00 00 00 03 00 00 00	r2 = 0x300000008 ll
      94:	2d 12 04 00 00 00 00 00	if r2 > r1 goto +0x4 <entrypoint+0x1e0>
      95:	18 02 00 00 00 00 00 00 00 00 00 00 03 00 00 00	r2 = 0x300000000 ll
      97:	7b 12 00 00 00 00 00 00	*(u64 *)(r2 + 0x0) = r1
      98:	bf 10 00 00 00 00 00 00	r0 = r1
      99:	95 00 00 00 00 00 00 00	exit

     100:	bf 25 00 00 00 00 00 00	r5 = r2
     101:	bf 12 00 00 00 00 00 00	r2 = r1
     102:	18 01 00 00 00 00 00 00 00 00 00 00 03 00 00 00	r1 = 0x300000000 ll
     104:	79 11 00 00 00 00 00 00	r1 = *(u64 *)(r1 + 0x0)
     105:	18 06 00 00 00 80 00 00 00 00 00 00 03 00 00 00	r6 = 0x300008000 ll
     107:	15 01 01 00 00 00 00 00	if r1 == 0x0 goto +0x1 <entrypoint+0x230>
     108:	bf 16 00 00 00 00 00 00	r6 = r1
     109:	bf 61 00 00 00 00 00 00	r1 = r6
     110:	1f 41 00 00 00 00 00 00	r1 -= r4
     111:	b7 00 00 00 00 00 00 00	r0 = 0x0
     112:	b7 07 00 00 01 00 00 00	r7 = 0x1
     113:	2d 61 01 00 00 00 00 00	if r1 > r6 goto +0x1 <entrypoint+0x260>
     114:	b7 07 00 00 00 00 00 00	r7 = 0x0
     115:	b7 06 00 00 00 00 00 00	r6 = 0x0
     116:	55 07 01 00 00 00 00 00	if r7 != 0x0 goto +0x1 <entrypoint+0x278>
     117:	bf 16 00 00 00 00 00 00	r6 = r1
     118:	87 03 00 00 00 00 00 00	r3 = -r3
     119:	5f 36 00 00 00 00 00 00	r6 &= r3
     120:	18 01 00 00 08 00 00 00 00 00 00 00 03 00 00 00	r1 = 0x300000008 ll
     122:	2d 61 09 00 00 00 00 00	if r1 > r6 goto +0x9 <entrypoint+0x2e8>
     123:	18 01 00 00 00 00 00 00 00 00 00 00 03 00 00 00	r1 = 0x300000000 ll
     125:	7b 61 00 00 00 00 00 00	*(u64 *)(r1 + 0x0) = r6
     126:	2d 54 01 00 00 00 00 00	if r4 > r5 goto +0x1 <entrypoint+0x2c8>
     127:	bf 45 00 00 00 00 00 00	r5 = r4
     128:	bf 61 00 00 00 00 00 00	r1 = r6
     129:	bf 53 00 00 00 00 00 00	r3 = r5
     130:	85 10 00 00 2b 07 00 00	call 0x72b
     131:	bf 60 00 00 00 00 00 00	r0 = r6
     132:	95 00 00 00 00 00 00 00	exit

0000000000000428 <custom_panic>:
     133:	7b 1a a0 ff 00 00 00 00	*(u64 *)(r10 - 0x60) = r1
     134:	b7 01 00 00 00 00 00 00	r1 = 0x0
     135:	7b 1a e0 ff 00 00 00 00	*(u64 *)(r10 - 0x20) = r1
     136:	18 01 00 00 60 40 00 00 00 00 00 00 00 00 00 00	r1 = 0x4060 ll
     138:	7b 1a c0 ff 00 00 00 00	*(u64 *)(r10 - 0x40) = r1
     139:	b7 01 00 00 01 00 00 00	r1 = 0x1
     140:	7b 1a c8 ff 00 00 00 00	*(u64 *)(r10 - 0x38) = r1
     141:	7b 1a d8 ff 00 00 00 00	*(u64 *)(r10 - 0x28) = r1
     142:	bf a1 00 00 00 00 00 00	r1 = r10
     143:	07 01 00 00 f0 ff ff ff	r1 += -0x10
     144:	7b 1a d0 ff 00 00 00 00	*(u64 *)(r10 - 0x30) = r1
     145:	18 01 00 00 20 01 00 00 00 00 00 00 00 00 00 00	r1 = 0x120 ll
     147:	7b 1a f8 ff 00 00 00 00	*(u64 *)(r10 - 0x8) = r1
     148:	bf a1 00 00 00 00 00 00	r1 = r10
     149:	07 01 00 00 a0 ff ff ff	r1 += -0x60
     150:	7b 1a f0 ff 00 00 00 00	*(u64 *)(r10 - 0x10) = r1
     151:	bf a1 00 00 00 00 00 00	r1 = r10
     152:	07 01 00 00 a8 ff ff ff	r1 += -0x58
     153:	bf a2 00 00 00 00 00 00	r2 = r10
     154:	07 02 00 00 c0 ff ff ff	r2 += -0x40
     155:	85 10 00 00 3e 02 00 00	call 0x23e
     156:	79 a1 a8 ff 00 00 00 00	r1 = *(u64 *)(r10 - 0x58)
     157:	79 a2 b8 ff 00 00 00 00	r2 = *(u64 *)(r10 - 0x48)
     158:	85 10 00 00 ff ff ff ff	call -0x1
     159:	95 00 00 00 00 00 00 00	exit

     160:	85 10 00 00 6a 01 00 00	call 0x16a
     161:	95 00 00 00 00 00 00 00	exit

     162:	bf 37 00 00 00 00 00 00	r7 = r3
     163:	bf 28 00 00 00 00 00 00	r8 = r2
     164:	bf 16 00 00 00 00 00 00	r6 = r1
     165:	15 08 0a 00 00 00 00 00	if r8 == 0x0 goto +0xa <custom_panic+0x158>
     166:	79 41 08 00 00 00 00 00	r1 = *(u64 *)(r4 + 0x8)
     167:	15 01 12 00 00 00 00 00	if r1 == 0x0 goto +0x12 <custom_panic+0x1a8>
     168:	79 42 10 00 00 00 00 00	r2 = *(u64 *)(r4 + 0x10)
     169:	55 02 0a 00 00 00 00 00	if r2 != 0x0 goto +0xa <custom_panic+0x178>
     170:	15 07 19 00 00 00 00 00	if r7 == 0x0 goto +0x19 <custom_panic+0x1f8>
     171:	bf 71 00 00 00 00 00 00	r1 = r7
     172:	bf 82 00 00 00 00 00 00	r2 = r8
     173:	85 10 00 00 9c ff ff ff	call -0x64
     174:	15 00 11 00 00 00 00 00	if r0 == 0x0 goto +0x11 <custom_panic+0x1d8>
     175:	05 00 16 00 00 00 00 00	goto +0x16 <custom_panic+0x208>
     176:	7b 76 10 00 00 00 00 00	*(u64 *)(r6 + 0x10) = r7
     177:	b7 01 00 00 00 00 00 00	r1 = 0x0
     178:	7b 16 08 00 00 00 00 00	*(u64 *)(r6 + 0x8) = r1
     179:	05 00 0e 00 00 00 00 00	goto +0xe <custom_panic+0x1e8>
     180:	79 41 00 00 00 00 00 00	r1 = *(u64 *)(r4 + 0x0)
     181:	bf 83 00 00 00 00 00 00	r3 = r8
     182:	bf 74 00 00 00 00 00 00	r4 = r7
     183:	85 10 00 00 ac ff ff ff	call -0x54
     184:	15 00 07 00 00 00 00 00	if r0 == 0x0 goto +0x7 <custom_panic+0x1d8>
     185:	05 00 0c 00 00 00 00 00	goto +0xc <custom_panic+0x208>
     186:	15 07 09 00 00 00 00 00	if r7 == 0x0 goto +0x9 <custom_panic+0x1f8>
     187:	bf 71 00 00 00 00 00 00	r1 = r7
     188:	bf 82 00 00 00 00 00 00	r2 = r8
     189:	85 10 00 00 8c ff ff ff	call -0x74
     190:	15 00 01 00 00 00 00 00	if r0 == 0x0 goto +0x1 <custom_panic+0x1d8>
     191:	05 00 06 00 00 00 00 00	goto +0x6 <custom_panic+0x208>
     192:	7b 76 10 00 00 00 00 00	*(u64 *)(r6 + 0x10) = r7
     193:	7b 86 08 00 00 00 00 00	*(u64 *)(r6 + 0x8) = r8
     194:	b7 01 00 00 01 00 00 00	r1 = 0x1
     195:	05 00 05 00 00 00 00 00	goto +0x5 <custom_panic+0x220>
     196:	b7 07 00 00 00 00 00 00	r7 = 0x0
     197:	bf 80 00 00 00 00 00 00	r0 = r8
     198:	7b 76 10 00 00 00 00 00	*(u64 *)(r6 + 0x10) = r7
     199:	7b 06 08 00 00 00 00 00	*(u64 *)(r6 + 0x8) = r0
     200:	b7 01 00 00 00 00 00 00	r1 = 0x0
     201:	7b 16 00 00 00 00 00 00	*(u64 *)(r6 + 0x0) = r1
     202:	95 00 00 00 00 00 00 00	exit

     203:	bf 16 00 00 00 00 00 00	r6 = r1
     204:	07 02 00 00 01 00 00 00	r2 += 0x1
     205:	b7 01 00 00 01 00 00 00	r1 = 0x1
     206:	15 02 01 00 00 00 00 00	if r2 == 0x0 goto +0x1 <custom_panic+0x258>
     207:	b7 01 00 00 00 00 00 00	r1 = 0x0
     208:	57 01 00 00 01 00 00 00	r1 &= 0x1
     209:	55 01 28 00 00 00 00 00	if r1 != 0x0 goto +0x28 <custom_panic+0x3a8>
     210:	79 61 08 00 00 00 00 00	r1 = *(u64 *)(r6 + 0x8)
     211:	bf 17 00 00 00 00 00 00	r7 = r1
     212:	67 07 00 00 01 00 00 00	r7 <<= 0x1
     213:	2d 27 01 00 00 00 00 00	if r7 > r2 goto +0x1 <custom_panic+0x290>
     214:	bf 27 00 00 00 00 00 00	r7 = r2
     215:	25 07 01 00 04 00 00 00	if r7 > 0x4 goto +0x1 <custom_panic+0x2a0>
     216:	b7 07 00 00 04 00 00 00	r7 = 0x4
     217:	b7 02 00 00 01 00 00 00	r2 = 0x1
     218:	18 03 00 00 ab aa aa aa 00 00 00 00 aa aa aa 02	r3 = 0x2aaaaaaaaaaaaab ll
     220:	2d 73 01 00 00 00 00 00	if r3 > r7 goto +0x1 <custom_panic+0x2c8>
     221:	b7 02 00 00 00 00 00 00	r2 = 0x0
     222:	bf 73 00 00 00 00 00 00	r3 = r7
     223:	27 03 00 00 30 00 00 00	r3 *= 0x30
     224:	67 02 00 00 03 00 00 00	r2 <<= 0x3
     225:	15 01 07 00 00 00 00 00	if r1 == 0x0 goto +0x7 <custom_panic+0x320>
     226:	79 64 00 00 00 00 00 00	r4 = *(u64 *)(r6 + 0x0)
     227:	27 01 00 00 30 00 00 00	r1 *= 0x30
     228:	7b 1a f8 ff 00 00 00 00	*(u64 *)(r10 - 0x8) = r1
     229:	b7 01 00 00 08 00 00 00	r1 = 0x8
     230:	7b 1a f0 ff 00 00 00 00	*(u64 *)(r10 - 0x10) = r1
     231:	7b 4a e8 ff 00 00 00 00	*(u64 *)(r10 - 0x18) = r4
     232:	05 00 02 00 00 00 00 00	goto +0x2 <custom_panic+0x330>
     233:	b7 01 00 00 00 00 00 00	r1 = 0x0
     234:	7b 1a f0 ff 00 00 00 00	*(u64 *)(r10 - 0x10) = r1
     235:	bf a1 00 00 00 00 00 00	r1 = r10
     236:	07 01 00 00 d0 ff ff ff	r1 += -0x30
     237:	bf a4 00 00 00 00 00 00	r4 = r10
     238:	07 04 00 00 e8 ff ff ff	r4 += -0x18
     239:	85 10 00 00 b2 ff ff ff	call -0x4e
     240:	79 a1 d8 ff 00 00 00 00	r1 = *(u64 *)(r10 - 0x28)
     241:	79 a2 d0 ff 00 00 00 00	r2 = *(u64 *)(r10 - 0x30)
     242:	55 02 03 00 00 00 00 00	if r2 != 0x0 goto +0x3 <custom_panic+0x388>
     243:	7b 76 08 00 00 00 00 00	*(u64 *)(r6 + 0x8) = r7
     244:	7b 16 00 00 00 00 00 00	*(u64 *)(r6 + 0x0) = r1
     245:	95 00 00 00 00 00 00 00	exit

     246:	18 02 00 00 01 00 00 00 00 00 00 00 00 00 00 80	r2 = -0x7fffffffffffffff ll
     248:	1d 21 fc ff 00 00 00 00	if r1 == r2 goto -0x4 <custom_panic+0x380>
     249:	55 01 02 00 00 00 00 00	if r1 != 0x0 goto +0x2 <custom_panic+0x3b8>
     250:	85 10 00 00 c7 01 00 00	call 0x1c7
     251:	85 10 00 00 ff ff ff ff	call -0x1
     252:	79 a2 e0 ff 00 00 00 00	r2 = *(u64 *)(r10 - 0x20)
     253:	85 10 00 00 d5 01 00 00	call 0x1d5
     254:	85 10 00 00 ff ff ff ff	call -0x1
     255:	bf 24 00 00 00 00 00 00	r4 = r2
     256:	79 46 00 00 00 00 00 00	r6 = *(u64 *)(r4 + 0x0)
     257:	7b 1a 98 ff 00 00 00 00	*(u64 *)(r10 - 0x68) = r1
     258:	55 06 18 00 00 00 00 00	if r6 != 0x0 goto +0x18 <custom_panic+0x4b0>
     259:	b7 01 00 00 00 00 00 00	r1 = 0x0
     260:	7b 1a f0 ff 00 00 00 00	*(u64 *)(r10 - 0x10) = r1
     261:	7b 6a e8 ff 00 00 00 00	*(u64 *)(r10 - 0x18) = r6
     262:	b7 08 00 00 08 00 00 00	r8 = 0x8
     263:	7b 8a e0 ff 00 00 00 00	*(u64 *)(r10 - 0x20) = r8
     264:	bf 41 00 00 00 00 00 00	r1 = r4
     265:	0f 81 00 00 00 00 00 00	r1 += r8
     266:	79 11 00 00 00 00 00 00	r1 = *(u64 *)(r1 + 0x0)
     267:	79 a2 f0 ff 00 00 00 00	r2 = *(u64 *)(r10 - 0x10)
     268:	79 a3 98 ff 00 00 00 00	r3 = *(u64 *)(r10 - 0x68)
     269:	7b 23 18 00 00 00 00 00	*(u64 *)(r3 + 0x18) = r2
     270:	79 a2 e8 ff 00 00 00 00	r2 = *(u64 *)(r10 - 0x18)
     271:	7b 23 10 00 00 00 00 00	*(u64 *)(r3 + 0x10) = r2
     272:	79 a2 e0 ff 00 00 00 00	r2 = *(u64 *)(r10 - 0x20)
     273:	7b 23 08 00 00 00 00 00	*(u64 *)(r3 + 0x8) = r2
     274:	07 08 00 00 08 00 00 00	r8 += 0x8
     275:	bf 42 00 00 00 00 00 00	r2 = r4
     276:	0f 82 00 00 00 00 00 00	r2 += r8
     277:	7b 23 20 00 00 00 00 00	*(u64 *)(r3 + 0x20) = r2
     278:	7b 13 28 00 00 00 00 00	*(u64 *)(r3 + 0x28) = r1
     279:	0f 81 00 00 00 00 00 00	r1 += r8
     280:	0f 14 00 00 00 00 00 00	r4 += r1
     281:	7b 43 00 00 00 00 00 00	*(u64 *)(r3 + 0x0) = r4
     282:	95 00 00 00 00 00 00 00	exit

     283:	b7 07 00 00 01 00 00 00	r7 = 0x1
     284:	18 02 00 00 ab aa aa aa 00 00 00 00 aa aa aa 02	r2 = 0x2aaaaaaaaaaaaab ll
     286:	2d 62 01 00 00 00 00 00	if r2 > r6 goto +0x1 <custom_panic+0x4d8>
     287:	b7 07 00 00 00 00 00 00	r7 = 0x0
     288:	2d 62 02 00 00 00 00 00	if r2 > r6 goto +0x2 <custom_panic+0x4f0>
     289:	85 10 00 00 a0 01 00 00	call 0x1a0
     290:	85 10 00 00 ff ff ff ff	call -0x1
     291:	bf 68 00 00 00 00 00 00	r8 = r6
     292:	27 08 00 00 30 00 00 00	r8 *= 0x30
     293:	67 07 00 00 03 00 00 00	r7 <<= 0x3
     294:	7b 4a d0 ff 00 00 00 00	*(u64 *)(r10 - 0x30) = r4
     295:	15 08 0a 00 00 00 00 00	if r8 == 0x0 goto +0xa <custom_panic+0x568>
     296:	bf 81 00 00 00 00 00 00	r1 = r8
     297:	bf 72 00 00 00 00 00 00	r2 = r7
     298:	85 10 00 00 1f ff ff ff	call -0xe1
     299:	79 a4 d0 ff 00 00 00 00	r4 = *(u64 *)(r10 - 0x30)
     300:	15 00 01 00 00 00 00 00	if r0 == 0x0 goto +0x1 <custom_panic+0x548>
     301:	05 00 05 00 00 00 00 00	goto +0x5 <custom_panic+0x570>
     302:	bf 71 00 00 00 00 00 00	r1 = r7
     303:	bf 82 00 00 00 00 00 00	r2 = r8
     304:	85 10 00 00 a2 01 00 00	call 0x1a2
     305:	85 10 00 00 ff ff ff ff	call -0x1
     306:	bf 70 00 00 00 00 00 00	r0 = r7
     307:	7b 6a e8 ff 00 00 00 00	*(u64 *)(r10 - 0x18) = r6
     308:	7b 0a e0 ff 00 00 00 00	*(u64 *)(r10 - 0x20) = r0
     309:	b7 08 00 00 08 00 00 00	r8 = 0x8
     310:	b7 01 00 00 00 00 00 00	r1 = 0x0
     311:	7b 1a f0 ff 00 00 00 00	*(u64 *)(r10 - 0x10) = r1
     312:	b7 02 00 00 00 00 00 00	r2 = 0x0
     313:	b7 03 00 00 00 00 00 00	r3 = 0x0
     314:	7b 6a a0 ff 00 00 00 00	*(u64 *)(r10 - 0x60) = r6
     315:	05 00 1d 00 00 00 00 00	goto +0x1d <custom_panic+0x6a0>
     316:	bf 21 00 00 00 00 00 00	r1 = r2
     317:	27 01 00 00 30 00 00 00	r1 *= 0x30
     318:	bf 03 00 00 00 00 00 00	r3 = r0
     319:	0f 13 00 00 00 00 00 00	r3 += r1
     320:	79 a1 a8 ff 00 00 00 00	r1 = *(u64 *)(r10 - 0x58)
     321:	73 13 2a 00 00 00 00 00	*(u8 *)(r3 + 0x2a) = r1
     322:	79 a1 b0 ff 00 00 00 00	r1 = *(u64 *)(r10 - 0x50)
     323:	73 13 29 00 00 00 00 00	*(u8 *)(r3 + 0x29) = r1
     324:	79 a1 b8 ff 00 00 00 00	r1 = *(u64 *)(r10 - 0x48)
     325:	73 13 28 00 00 00 00 00	*(u8 *)(r3 + 0x28) = r1
     326:	79 a1 c0 ff 00 00 00 00	r1 = *(u64 *)(r10 - 0x40)
     327:	7b 13 20 00 00 00 00 00	*(u64 *)(r3 + 0x20) = r1
     328:	79 a1 c8 ff 00 00 00 00	r1 = *(u64 *)(r10 - 0x38)
     329:	7b 13 18 00 00 00 00 00	*(u64 *)(r3 + 0x18) = r1
     330:	7b 93 10 00 00 00 00 00	*(u64 *)(r3 + 0x10) = r9
     331:	7b 63 08 00 00 00 00 00	*(u64 *)(r3 + 0x8) = r6
     332:	7b 73 00 00 00 00 00 00	*(u64 *)(r3 + 0x0) = r7
     333:	61 a1 fb ff 00 00 00 00	r1 = *(u32 *)(r10 - 0x5)
     334:	63 13 2b 00 00 00 00 00	*(u32 *)(r3 + 0x2b) = r1
     335:	71 a1 ff ff 00 00 00 00	r1 = *(u8 *)(r10 - 0x1)
     336:	73 13 2f 00 00 00 00 00	*(u8 *)(r3 + 0x2f) = r1
     337:	07 02 00 00 01 00 00 00	r2 += 0x1
     338:	7b 2a f0 ff 00 00 00 00	*(u64 *)(r10 - 0x10) = r2
     339:	79 a3 d8 ff 00 00 00 00	r3 = *(u64 *)(r10 - 0x28)
     340:	07 03 00 00 01 00 00 00	r3 += 0x1
     341:	07 08 00 00 08 00 00 00	r8 += 0x8
     342:	79 a1 a0 ff 00 00 00 00	r1 = *(u64 *)(r10 - 0x60)
     343:	2d 31 01 00 00 00 00 00	if r1 > r3 goto +0x1 <custom_panic+0x6a0>
     344:	05 00 af ff 00 00 00 00	goto -0x51 <custom_panic+0x418>
     345:	bf 41 00 00 00 00 00 00	r1 = r4
     346:	0f 81 00 00 00 00 00 00	r1 += r8
     347:	71 11 00 00 00 00 00 00	r1 = *(u8 *)(r1 + 0x0)
     348:	7b 3a d8 ff 00 00 00 00	*(u64 *)(r10 - 0x28) = r3
     349:	15 01 33 00 ff 00 00 00	if r1 == 0xff goto +0x33 <custom_panic+0x860>
     350:	2d 12 01 00 00 00 00 00	if r2 > r1 goto +0x1 <custom_panic+0x6d8>
     351:	05 00 96 00 00 00 00 00	goto +0x96 <custom_panic+0xb88>
     352:	bf 25 00 00 00 00 00 00	r5 = r2
     353:	27 01 00 00 30 00 00 00	r1 *= 0x30
     354:	bf 02 00 00 00 00 00 00	r2 = r0
     355:	0f 12 00 00 00 00 00 00	r2 += r1
     356:	79 26 08 00 00 00 00 00	r6 = *(u64 *)(r2 + 0x8)
     357:	79 63 00 00 00 00 00 00	r3 = *(u64 *)(r6 + 0x0)
     358:	07 03 00 00 01 00 00 00	r3 += 0x1
     359:	b7 04 00 00 01 00 00 00	r4 = 0x1
     360:	15 03 01 00 00 00 00 00	if r3 == 0x0 goto +0x1 <custom_panic+0x728>
     361:	b7 04 00 00 00 00 00 00	r4 = 0x0
     362:	79 27 00 00 00 00 00 00	r7 = *(u64 *)(r2 + 0x0)
     363:	7b 36 00 00 00 00 00 00	*(u64 *)(r6 + 0x0) = r3
     364:	55 04 02 00 01 00 00 00	if r4 != 0x1 goto +0x2 <custom_panic+0x750>
     365:	85 10 00 00 ff ff ff ff	call -0x1
     366:	85 10 00 00 ff ff ff ff	call -0x1
     367:	bf 02 00 00 00 00 00 00	r2 = r0
     368:	0f 12 00 00 00 00 00 00	r2 += r1
     369:	79 29 10 00 00 00 00 00	r9 = *(u64 *)(r2 + 0x10)
     370:	79 92 00 00 00 00 00 00	r2 = *(u64 *)(r9 + 0x0)
     371:	07 02 00 00 01 00 00 00	r2 += 0x1
     372:	b7 03 00 00 01 00 00 00	r3 = 0x1
     373:	15 02 01 00 00 00 00 00	if r2 == 0x0 goto +0x1 <custom_panic+0x790>
     374:	b7 03 00 00 00 00 00 00	r3 = 0x0
     375:	7b 29 00 00 00 00 00 00	*(u64 *)(r9 + 0x0) = r2
     376:	55 03 01 00 01 00 00 00	if r3 != 0x1 goto +0x1 <custom_panic+0x7a8>
     377:	05 00 f3 ff 00 00 00 00	goto -0xd <custom_panic+0x740>
     378:	bf 02 00 00 00 00 00 00	r2 = r0
     379:	0f 12 00 00 00 00 00 00	r2 += r1
     380:	71 21 2a 00 00 00 00 00	r1 = *(u8 *)(r2 + 0x2a)
     381:	7b 1a a8 ff 00 00 00 00	*(u64 *)(r10 - 0x58) = r1
     382:	71 21 29 00 00 00 00 00	r1 = *(u8 *)(r2 + 0x29)
     383:	7b 1a b0 ff 00 00 00 00	*(u64 *)(r10 - 0x50) = r1
     384:	71 21 28 00 00 00 00 00	r1 = *(u8 *)(r2 + 0x28)
     385:	7b 1a b8 ff 00 00 00 00	*(u64 *)(r10 - 0x48) = r1
     386:	79 21 20 00 00 00 00 00	r1 = *(u64 *)(r2 + 0x20)
     387:	7b 1a c0 ff 00 00 00 00	*(u64 *)(r10 - 0x40) = r1
     388:	79 21 18 00 00 00 00 00	r1 = *(u64 *)(r2 + 0x18)
     389:	7b 1a c8 ff 00 00 00 00	*(u64 *)(r10 - 0x38) = r1
     390:	79 a1 e8 ff 00 00 00 00	r1 = *(u64 *)(r10 - 0x18)
     391:	bf 52 00 00 00 00 00 00	r2 = r5
     392:	79 a4 d0 ff 00 00 00 00	r4 = *(u64 *)(r10 - 0x30)
     393:	5d 12 b2 ff 00 00 00 00	if r2 != r1 goto -0x4e <custom_panic+0x5b8>
     394:	bf a1 00 00 00 00 00 00	r1 = r10
     395:	07 01 00 00 e0 ff ff ff	r1 += -0x20
     396:	85 10 00 00 3e ff ff ff	call -0xc2
     397:	79 a4 d0 ff 00 00 00 00	r4 = *(u64 *)(r10 - 0x30)
     398:	79 a0 e0 ff 00 00 00 00	r0 = *(u64 *)(r10 - 0x20)
     399:	79 a2 f0 ff 00 00 00 00	r2 = *(u64 *)(r10 - 0x10)
     400:	05 00 ab ff 00 00 00 00	goto -0x55 <custom_panic+0x5b8>
     401:	7b 2a c8 ff 00 00 00 00	*(u64 *)(r10 - 0x38) = r2
     402:	bf 86 00 00 00 00 00 00	r6 = r8
     403:	0f 46 00 00 00 00 00 00	r6 += r4
     404:	71 61 03 00 00 00 00 00	r1 = *(u8 *)(r6 + 0x3)
     405:	7b 1a b0 ff 00 00 00 00	*(u64 *)(r10 - 0x50) = r1
     406:	71 61 02 00 00 00 00 00	r1 = *(u8 *)(r6 + 0x2)
     407:	7b 1a b8 ff 00 00 00 00	*(u64 *)(r10 - 0x48) = r1
     408:	71 61 01 00 00 00 00 00	r1 = *(u8 *)(r6 + 0x1)
     409:	7b 1a c0 ff 00 00 00 00	*(u64 *)(r10 - 0x40) = r1
     410:	b7 01 00 00 20 00 00 00	r1 = 0x20
     411:	b7 02 00 00 08 00 00 00	r2 = 0x8
     412:	85 10 00 00 ad fe ff ff	call -0x153
     413:	55 00 04 00 00 00 00 00	if r0 != 0x0 goto +0x4 <custom_panic+0x8e8>
     414:	b7 01 00 00 08 00 00 00	r1 = 0x8
     415:	b7 02 00 00 20 00 00 00	r2 = 0x20
     416:	85 10 00 00 32 01 00 00	call 0x132
     417:	85 10 00 00 ff ff ff ff	call -0x1
     418:	b7 01 00 00 00 00 00 00	r1 = 0x0
     419:	7b 10 10 00 00 00 00 00	*(u64 *)(r0 + 0x10) = r1
     420:	b7 01 00 00 01 00 00 00	r1 = 0x1
     421:	7b 10 08 00 00 00 00 00	*(u64 *)(r0 + 0x8) = r1
     422:	7b 10 00 00 00 00 00 00	*(u64 *)(r0 + 0x0) = r1
     423:	bf 61 00 00 00 00 00 00	r1 = r6
     424:	07 01 00 00 48 00 00 00	r1 += 0x48
     425:	7b 0a a8 ff 00 00 00 00	*(u64 *)(r10 - 0x58) = r0
     426:	7b 10 18 00 00 00 00 00	*(u64 *)(r0 + 0x18) = r1
     427:	79 69 50 00 00 00 00 00	r9 = *(u64 *)(r6 + 0x50)
     428:	63 96 04 00 00 00 00 00	*(u32 *)(r6 + 0x4) = r9
     429:	b7 01 00 00 28 00 00 00	r1 = 0x28
     430:	b7 02 00 00 08 00 00 00	r2 = 0x8
     431:	85 10 00 00 9a fe ff ff	call -0x166
     432:	bf 07 00 00 00 00 00 00	r7 = r0
     433:	55 07 04 00 00 00 00 00	if r7 != 0x0 goto +0x4 <custom_panic+0x988>
     434:	b7 01 00 00 08 00 00 00	r1 = 0x8
     435:	b7 02 00 00 28 00 00 00	r2 = 0x28
     436:	85 10 00 00 1e 01 00 00	call 0x11e
     437:	85 10 00 00 ff ff ff ff	call -0x1
     438:	79 a1 b0 ff 00 00 00 00	r1 = *(u64 *)(r10 - 0x50)
     439:	bf 13 00 00 00 00 00 00	r3 = r1
     440:	b7 02 00 00 00 00 00 00	r2 = 0x0
     441:	b7 01 00 00 01 00 00 00	r1 = 0x1
     442:	b7 05 00 00 01 00 00 00	r5 = 0x1
     443:	79 a4 d0 ff 00 00 00 00	r4 = *(u64 *)(r10 - 0x30)
     444:	55 03 01 00 00 00 00 00	if r3 != 0x0 goto +0x1 <custom_panic+0x9c8>
     445:	b7 05 00 00 00 00 00 00	r5 = 0x0
     446:	79 a3 b8 ff 00 00 00 00	r3 = *(u64 *)(r10 - 0x48)
     447:	7b 27 10 00 00 00 00 00	*(u64 *)(r7 + 0x10) = r2
     448:	b7 02 00 00 01 00 00 00	r2 = 0x1
     449:	55 03 01 00 00 00 00 00	if r3 != 0x0 goto +0x1 <custom_panic+0x9f0>
     450:	b7 02 00 00 00 00 00 00	r2 = 0x0
     451:	7b 2a b8 ff 00 00 00 00	*(u64 *)(r10 - 0x48) = r2
     452:	79 a2 c0 ff 00 00 00 00	r2 = *(u64 *)(r10 - 0x40)
     453:	b7 03 00 00 01 00 00 00	r3 = 0x1
     454:	55 02 01 00 00 00 00 00	if r2 != 0x0 goto +0x1 <custom_panic+0xa18>
     455:	b7 03 00 00 00 00 00 00	r3 = 0x0
     456:	7b 3a c0 ff 00 00 00 00	*(u64 *)(r10 - 0x40) = r3
     457:	bf 62 00 00 00 00 00 00	r2 = r6
     458:	07 02 00 00 28 00 00 00	r2 += 0x28
     459:	7b 2a b0 ff 00 00 00 00	*(u64 *)(r10 - 0x50) = r2
     460:	07 06 00 00 08 00 00 00	r6 += 0x8
     461:	7b 17 08 00 00 00 00 00	*(u64 *)(r7 + 0x8) = r1
     462:	7b 17 00 00 00 00 00 00	*(u64 *)(r7 + 0x0) = r1
     463:	bf 81 00 00 00 00 00 00	r1 = r8
     464:	0f 41 00 00 00 00 00 00	r1 += r4
     465:	07 01 00 00 58 00 00 00	r1 += 0x58
     466:	7b 17 18 00 00 00 00 00	*(u64 *)(r7 + 0x18) = r1
     467:	7b 97 20 00 00 00 00 00	*(u64 *)(r7 + 0x20) = r9
     468:	0f 98 00 00 00 00 00 00	r8 += r9
     469:	07 08 00 00 5f 28 00 00	r8 += 0x285f
     470:	57 08 00 00 f8 ff ff ff	r8 &= -0x8
     471:	bf 41 00 00 00 00 00 00	r1 = r4
     472:	0f 81 00 00 00 00 00 00	r1 += r8
     473:	79 19 00 00 00 00 00 00	r9 = *(u64 *)(r1 + 0x0)
     474:	79 a1 e8 ff 00 00 00 00	r1 = *(u64 *)(r10 - 0x18)
     475:	79 a2 c8 ff 00 00 00 00	r2 = *(u64 *)(r10 - 0x38)
     476:	5d 12 07 00 00 00 00 00	if r2 != r1 goto +0x7 <custom_panic+0xaf8>
     477:	bf a1 00 00 00 00 00 00	r1 = r10
     478:	07 01 00 00 e0 ff ff ff	r1 += -0x20
     479:	7b 5a c8 ff 00 00 00 00	*(u64 *)(r10 - 0x38) = r5
     480:	85 10 00 00 ea fe ff ff	call -0x116
     481:	79 a5 c8 ff 00 00 00 00	r5 = *(u64 *)(r10 - 0x38)
     482:	79 a4 d0 ff 00 00 00 00	r4 = *(u64 *)(r10 - 0x30)
     483:	79 a2 f0 ff 00 00 00 00	r2 = *(u64 *)(r10 - 0x10)
     484:	bf 21 00 00 00 00 00 00	r1 = r2
     485:	27 01 00 00 30 00 00 00	r1 *= 0x30
     486:	79 a0 e0 ff 00 00 00 00	r0 = *(u64 *)(r10 - 0x20)
     487:	bf 03 00 00 00 00 00 00	r3 = r0
     488:	0f 13 00 00 00 00 00 00	r3 += r1
     489:	73 53 2a 00 00 00 00 00	*(u8 *)(r3 + 0x2a) = r5
     490:	79 a1 b8 ff 00 00 00 00	r1 = *(u64 *)(r10 - 0x48)
     491:	73 13 29 00 00 00 00 00	*(u8 *)(r3 + 0x29) = r1
     492:	79 a1 c0 ff 00 00 00 00	r1 = *(u64 *)(r10 - 0x40)
     493:	73 13 28 00 00 00 00 00	*(u8 *)(r3 + 0x28) = r1
     494:	7b 93 20 00 00 00 00 00	*(u64 *)(r3 + 0x20) = r9
     495:	79 a1 b0 ff 00 00 00 00	r1 = *(u64 *)(r10 - 0x50)
     496:	7b 13 18 00 00 00 00 00	*(u64 *)(r3 + 0x18) = r1
     497:	7b 73 10 00 00 00 00 00	*(u64 *)(r3 + 0x10) = r7
     498:	79 a1 a8 ff 00 00 00 00	r1 = *(u64 *)(r10 - 0x58)
     499:	7b 13 08 00 00 00 00 00	*(u64 *)(r3 + 0x8) = r1
     500:	7b 63 00 00 00 00 00 00	*(u64 *)(r3 + 0x0) = r6
     501:	05 00 5b ff 00 00 00 00	goto -0xa5 <custom_panic+0x660>
     502:	18 03 00 00 70 40 00 00 00 00 00 00 00 00 00 00	r3 = 0x4070 ll
     504:	85 10 00 00 1e 02 00 00	call 0x21e
     505:	85 10 00 00 ff ff ff ff	call -0x1
     506:	85 10 00 00 08 00 00 00	call 0x8
     507:	85 10 00 00 ff ff ff ff	call -0x1
     508:	85 10 00 00 03 00 00 00	call 0x3
     509:	85 10 00 00 ff ff ff ff	call -0x1
     510:	85 10 00 00 ff ff ff ff	call -0x1
     511:	95 00 00 00 00 00 00 00	exit

     512:	85 10 00 00 ff ff ff ff	call -0x1
     513:	85 10 00 00 ff ff ff ff	call -0x1
     514:	85 10 00 00 ff ff ff ff	call -0x1
     515:	85 10 00 00 ff ff ff ff	call -0x1
     516:	85 10 00 00 ff ff ff ff	call -0x1
     517:	18 01 00 00 9e 3e 00 00 00 00 00 00 00 00 00 00	r1 = 0x3e9e ll
     519:	b7 02 00 00 2e 00 00 00	r2 = 0x2e
     520:	85 10 00 00 f5 ff ff ff	call -0xb
     521:	85 10 00 00 f0 ff ff ff	call -0x10
     522:	85 10 00 00 ff ff ff ff	call -0x1
     523:	85 10 00 00 f9 ff ff ff	call -0x7
     524:	85 10 00 00 ff ff ff ff	call -0x1
     525:	95 00 00 00 00 00 00 00	exit

     526:	95 00 00 00 00 00 00 00	exit

     527:	79 11 00 00 00 00 00 00	r1 = *(u64 *)(r1 + 0x0)
     528:	85 10 00 00 22 01 00 00	call 0x122
     529:	b7 00 00 00 00 00 00 00	r0 = 0x0
     530:	95 00 00 00 00 00 00 00	exit

     531:	79 17 00 00 00 00 00 00	r7 = *(u64 *)(r1 + 0x0)
     532:	bf a6 00 00 00 00 00 00	r6 = r10
     533:	07 06 00 00 d0 ff ff ff	r6 += -0x30
     534:	bf 61 00 00 00 00 00 00	r1 = r6
     535:	b7 03 00 00 30 00 00 00	r3 = 0x30
     536:	85 10 00 00 95 05 00 00	call 0x595
     537:	7b 7a c8 ff 00 00 00 00	*(u64 *)(r10 - 0x38) = r7
     538:	bf a1 00 00 00 00 00 00	r1 = r10
     539:	07 01 00 00 c8 ff ff ff	r1 += -0x38
     540:	18 02 00 00 88 40 00 00 00 00 00 00 00 00 00 00	r2 = 0x4088 ll
     542:	bf 63 00 00 00 00 00 00	r3 = r6
     543:	85 10 00 00 33 02 00 00	call 0x233
     544:	95 00 00 00 00 00 00 00	exit
     545:	bf 36 00 00 00 00 00 00	r6 = r3
     546:	bf 28 00 00 00 00 00 00	r8 = r2
     547:	79 17 00 00 00 00 00 00	r7 = *(u64 *)(r1 + 0x0)
     548:	79 79 10 00 00 00 00 00	r9 = *(u64 *)(r7 + 0x10)
     549:	79 71 08 00 00 00 00 00	r1 = *(u64 *)(r7 + 0x8)
     550:	1f 91 00 00 00 00 00 00	r1 -= r9
     551:	3d 61 05 00 00 00 00 00	if r1 >= r6 goto +0x5 <custom_panic+0xd40>
     552:	bf 71 00 00 00 00 00 00	r1 = r7
     553:	bf 92 00 00 00 00 00 00	r2 = r9
     554:	bf 63 00 00 00 00 00 00	r3 = r6
     555:	85 10 00 00 0a 00 00 00	call 0xa
     556:	79 79 10 00 00 00 00 00	r9 = *(u64 *)(r7 + 0x10)
     557:	79 71 00 00 00 00 00 00	r1 = *(u64 *)(r7 + 0x0)
     558:	0f 91 00 00 00 00 00 00	r1 += r9
     559:	bf 82 00 00 00 00 00 00	r2 = r8
     560:	bf 63 00 00 00 00 00 00	r3 = r6
     561:	85 10 00 00 7c 05 00 00	call 0x57c
     562:	0f 69 00 00 00 00 00 00	r9 += r6
     563:	7b 97 10 00 00 00 00 00	*(u64 *)(r7 + 0x10) = r9
     564:	b7 00 00 00 00 00 00 00	r0 = 0x0
     565:	95 00 00 00 00 00 00 00	exit
     566:	bf 16 00 00 00 00 00 00	r6 = r1
     567:	bf 24 00 00 00 00 00 00	r4 = r2
     568:	0f 34 00 00 00 00 00 00	r4 += r3
     569:	b7 01 00 00 01 00 00 00	r1 = 0x1
     570:	2d 42 01 00 00 00 00 00	if r2 > r4 goto +0x1 <custom_panic+0xdb8>
     571:	b7 01 00 00 00 00 00 00	r1 = 0x0
     572:	57 01 00 00 01 00 00 00	r1 &= 0x1
     573:	55 01 23 00 00 00 00 00	if r1 != 0x0 goto +0x23 <custom_panic+0xee0>
     574:	79 61 08 00 00 00 00 00	r1 = *(u64 *)(r6 + 0x8)
     575:	bf 17 00 00 00 00 00 00	r7 = r1
     576:	67 07 00 00 01 00 00 00	r7 <<= 0x1
     577:	2d 47 01 00 00 00 00 00	if r7 > r4 goto +0x1 <custom_panic+0xdf0>
     578:	bf 47 00 00 00 00 00 00	r7 = r4
     579:	25 07 01 00 08 00 00 00	if r7 > 0x8 goto +0x1 <custom_panic+0xe00>
     580:	b7 07 00 00 08 00 00 00	r7 = 0x8
     581:	bf 72 00 00 00 00 00 00	r2 = r7
     582:	a7 02 00 00 ff ff ff ff	r2 ^= -0x1
     583:	77 02 00 00 3f 00 00 00	r2 >>= 0x3f
     584:	15 01 06 00 00 00 00 00	if r1 == 0x0 goto +0x6 <custom_panic+0xe50>
     585:	79 63 00 00 00 00 00 00	r3 = *(u64 *)(r6 + 0x0)
     586:	7b 1a f8 ff 00 00 00 00	*(u64 *)(r10 - 0x8) = r1
     587:	b7 01 00 00 01 00 00 00	r1 = 0x1
     588:	7b 1a f0 ff 00 00 00 00	*(u64 *)(r10 - 0x10) = r1
     589:	7b 3a e8 ff 00 00 00 00	*(u64 *)(r10 - 0x18) = r3
     590:	05 00 02 00 00 00 00 00	goto +0x2 <custom_panic+0xe60>
     591:	b7 01 00 00 00 00 00 00	r1 = 0x0
     592:	7b 1a f0 ff 00 00 00 00	*(u64 *)(r10 - 0x10) = r1
     593:	bf a1 00 00 00 00 00 00	r1 = r10
     594:	07 01 00 00 d0 ff ff ff	r1 += -0x30
     595:	bf a4 00 00 00 00 00 00	r4 = r10
     596:	07 04 00 00 e8 ff ff ff	r4 += -0x18
     597:	bf 73 00 00 00 00 00 00	r3 = r7
     598:	85 10 00 00 3e 00 00 00	call 0x3e
     599:	79 a1 d8 ff 00 00 00 00	r1 = *(u64 *)(r10 - 0x28)
     600:	79 a2 d0 ff 00 00 00 00	r2 = *(u64 *)(r10 - 0x30)
     601:	55 02 03 00 00 00 00 00	if r2 != 0x0 goto +0x3 <custom_panic+0xec0>
     602:	7b 76 08 00 00 00 00 00	*(u64 *)(r6 + 0x8) = r7
     603:	7b 16 00 00 00 00 00 00	*(u64 *)(r6 + 0x0) = r1
     604:	95 00 00 00 00 00 00 00	exit
     605:	18 02 00 00 01 00 00 00 00 00 00 00 00 00 00 80	r2 = -0x7fffffffffffffff ll
     607:	1d 21 fc ff 00 00 00 00	if r1 == r2 goto -0x4 <custom_panic+0xeb8>
     608:	55 01 02 00 00 00 00 00	if r1 != 0x0 goto +0x2 <custom_panic+0xef0>
     609:	85 10 00 00 60 00 00 00	call 0x60
     610:	85 10 00 00 ff ff ff ff	call -0x1
     611:	79 a2 e0 ff 00 00 00 00	r2 = *(u64 *)(r10 - 0x20)
     612:	85 10 00 00 6e 00 00 00	call 0x6e
     613:	85 10 00 00 ff ff ff ff	call -0x1
     614:	bf 16 00 00 00 00 00 00	r6 = r1
     615:	07 02 00 00 01 00 00 00	r2 += 0x1
     616:	b7 01 00 00 01 00 00 00	r1 = 0x1
     617:	15 02 01 00 00 00 00 00	if r2 == 0x0 goto +0x1 <custom_panic+0xf30>
     618:	b7 01 00 00 00 00 00 00	r1 = 0x0
     619:	57 01 00 00 01 00 00 00	r1 &= 0x1
     620:	55 01 23 00 00 00 00 00	if r1 != 0x0 goto +0x23 <custom_panic+0x1058>
     621:	79 61 08 00 00 00 00 00	r1 = *(u64 *)(r6 + 0x8)
     622:	bf 17 00 00 00 00 00 00	r7 = r1
     623:	67 07 00 00 01 00 00 00	r7 <<= 0x1
     624:	2d 27 01 00 00 00 00 00	if r7 > r2 goto +0x1 <custom_panic+0xf68>
     625:	bf 27 00 00 00 00 00 00	r7 = r2
     626:	25 07 01 00 08 00 00 00	if r7 > 0x8 goto +0x1 <custom_panic+0xf78>
     627:	b7 07 00 00 08 00 00 00	r7 = 0x8
     628:	bf 72 00 00 00 00 00 00	r2 = r7
     629:	a7 02 00 00 ff ff ff ff	r2 ^= -0x1
     630:	77 02 00 00 3f 00 00 00	r2 >>= 0x3f
     631:	15 01 06 00 00 00 00 00	if r1 == 0x0 goto +0x6 <custom_panic+0xfc8>
     632:	79 63 00 00 00 00 00 00	r3 = *(u64 *)(r6 + 0x0)
     633:	7b 1a f8 ff 00 00 00 00	*(u64 *)(r10 - 0x8) = r1
     634:	b7 01 00 00 01 00 00 00	r1 = 0x1
     635:	7b 1a f0 ff 00 00 00 00	*(u64 *)(r10 - 0x10) = r1
     636:	7b 3a e8 ff 00 00 00 00	*(u64 *)(r10 - 0x18) = r3
     637:	05 00 02 00 00 00 00 00	goto +0x2 <custom_panic+0xfd8>
     638:	b7 01 00 00 00 00 00 00	r1 = 0x0
     639:	7b 1a f0 ff 00 00 00 00	*(u64 *)(r10 - 0x10) = r1
     640:	bf a1 00 00 00 00 00 00	r1 = r10
     641:	07 01 00 00 d0 ff ff ff	r1 += -0x30
     642:	bf a4 00 00 00 00 00 00	r4 = r10
     643:	07 04 00 00 e8 ff ff ff	r4 += -0x18
     644:	bf 73 00 00 00 00 00 00	r3 = r7
     645:	85 10 00 00 0f 00 00 00	call 0xf
     646:	79 a1 d8 ff 00 00 00 00	r1 = *(u64 *)(r10 - 0x28)
     647:	79 a2 d0 ff 00 00 00 00	r2 = *(u64 *)(r10 - 0x30)
     648:	55 02 03 00 00 00 00 00	if r2 != 0x0 goto +0x3 <custom_panic+0x1038>
     649:	7b 76 08 00 00 00 00 00	*(u64 *)(r6 + 0x8) = r7
     650:	7b 16 00 00 00 00 00 00	*(u64 *)(r6 + 0x0) = r1
     651:	95 00 00 00 00 00 00 00	exit
     652:	18 02 00 00 01 00 00 00 00 00 00 00 00 00 00 80	r2 = -0x7fffffffffffffff ll
     654:	1d 21 fc ff 00 00 00 00	if r1 == r2 goto -0x4 <custom_panic+0x1030>
     655:	55 01 02 00 00 00 00 00	if r1 != 0x0 goto +0x2 <custom_panic+0x1068>
     656:	85 10 00 00 31 00 00 00	call 0x31
     657:	85 10 00 00 ff ff ff ff	call -0x1
     658:	79 a2 e0 ff 00 00 00 00	r2 = *(u64 *)(r10 - 0x20)
     659:	85 10 00 00 3f 00 00 00	call 0x3f
     660:	85 10 00 00 ff ff ff ff	call -0x1
     661:	bf 37 00 00 00 00 00 00	r7 = r3
     662:	bf 16 00 00 00 00 00 00	r6 = r1
     663:	15 02 0d 00 00 00 00 00	if r2 == 0x0 goto +0xd <custom_panic+0x1100>
     664:	79 41 08 00 00 00 00 00	r1 = *(u64 *)(r4 + 0x8)
     665:	15 01 1b 00 00 00 00 00	if r1 == 0x0 goto +0x1b <custom_panic+0x1180>
     666:	79 42 10 00 00 00 00 00	r2 = *(u64 *)(r4 + 0x10)
     667:	55 02 0e 00 00 00 00 00	if r2 != 0x0 goto +0xe <custom_panic+0x1128>
     668:	b7 01 00 00 00 00 00 00	r1 = 0x0
     669:	b7 00 00 00 01 00 00 00	r0 = 0x1
     670:	15 07 1e 00 00 00 00 00	if r7 == 0x0 goto +0x1e <custom_panic+0x11c0>
     671:	bf 71 00 00 00 00 00 00	r1 = r7
     672:	b7 02 00 00 01 00 00 00	r2 = 0x1
     673:	85 10 00 00 a8 fd ff ff	call -0x258
     674:	bf 71 00 00 00 00 00 00	r1 = r7
     675:	15 00 0d 00 00 00 00 00	if r0 == 0x0 goto +0xd <custom_panic+0x1160>
     676:	05 00 18 00 00 00 00 00	goto +0x18 <custom_panic+0x11c0>
     677:	7b 76 10 00 00 00 00 00	*(u64 *)(r6 + 0x10) = r7
     678:	b7 01 00 00 00 00 00 00	r1 = 0x0
     679:	7b 16 08 00 00 00 00 00	*(u64 *)(r6 + 0x8) = r1
     680:	b7 01 00 00 01 00 00 00	r1 = 0x1
     681:	05 00 16 00 00 00 00 00	goto +0x16 <custom_panic+0x11d8>
     682:	79 41 00 00 00 00 00 00	r1 = *(u64 *)(r4 + 0x0)
     683:	b7 03 00 00 01 00 00 00	r3 = 0x1
     684:	bf 74 00 00 00 00 00 00	r4 = r7
     685:	85 10 00 00 b6 fd ff ff	call -0x24a
     686:	bf 71 00 00 00 00 00 00	r1 = r7
     687:	15 00 01 00 00 00 00 00	if r0 == 0x0 goto +0x1 <custom_panic+0x1160>
     688:	05 00 0c 00 00 00 00 00	goto +0xc <custom_panic+0x11c0>
     689:	7b 76 10 00 00 00 00 00	*(u64 *)(r6 + 0x10) = r7
     690:	b7 01 00 00 01 00 00 00	r1 = 0x1
     691:	7b 16 08 00 00 00 00 00	*(u64 *)(r6 + 0x8) = r1
     692:	05 00 0b 00 00 00 00 00	goto +0xb <custom_panic+0x11d8>
     693:	b7 01 00 00 00 00 00 00	r1 = 0x0
     694:	b7 00 00 00 01 00 00 00	r0 = 0x1
     695:	15 07 05 00 00 00 00 00	if r7 == 0x0 goto +0x5 <custom_panic+0x11c0>
     696:	bf 71 00 00 00 00 00 00	r1 = r7
     697:	b7 02 00 00 01 00 00 00	r2 = 0x1
     698:	85 10 00 00 8f fd ff ff	call -0x271
     699:	bf 71 00 00 00 00 00 00	r1 = r7
     700:	15 00 f4 ff 00 00 00 00	if r0 == 0x0 goto -0xc <custom_panic+0x1160>
     701:	7b 16 10 00 00 00 00 00	*(u64 *)(r6 + 0x10) = r1
     702:	7b 06 08 00 00 00 00 00	*(u64 *)(r6 + 0x8) = r0
     703:	b7 01 00 00 00 00 00 00	r1 = 0x0
     704:	7b 16 00 00 00 00 00 00	*(u64 *)(r6 + 0x0) = r1
     705:	95 00 00 00 00 00 00 00	exit
     706:	b7 01 00 00 01 00 00 00	r1 = 0x1
     707:	7b 1a d8 ff 00 00 00 00	*(u64 *)(r10 - 0x28) = r1
     708:	18 01 00 00 b8 40 00 00 00 00 00 00 00 00 00 00	r1 = 0x40b8 ll
     710:	7b 1a d0 ff 00 00 00 00	*(u64 *)(r10 - 0x30) = r1
     711:	b7 01 00 00 00 00 00 00	r1 = 0x0
     712:	7b 1a f0 ff 00 00 00 00	*(u64 *)(r10 - 0x10) = r1
     713:	7b 1a e8 ff 00 00 00 00	*(u64 *)(r10 - 0x18) = r1
     714:	18 01 00 00 d0 3e 00 00 00 00 00 00 00 00 00 00	r1 = 0x3ed0 ll
     716:	7b 1a e0 ff 00 00 00 00	*(u64 *)(r10 - 0x20) = r1
     717:	bf a1 00 00 00 00 00 00	r1 = r10
     718:	07 01 00 00 d0 ff ff ff	r1 += -0x30
     719:	18 02 00 00 c8 40 00 00 00 00 00 00 00 00 00 00	r2 = 0x40c8 ll
     721:	85 10 00 00 37 01 00 00	call 0x137
     722:	85 10 00 00 ff ff ff ff	call -0x1
     723:	85 10 00 00 01 00 00 00	call 0x1
     724:	85 10 00 00 ff ff ff ff	call -0x1
     725:	bf 13 00 00 00 00 00 00	r3 = r1
     726:	bf 21 00 00 00 00 00 00	r1 = r2
     727:	bf 32 00 00 00 00 00 00	r2 = r3
     728:	85 10 00 00 c7 fd ff ff	call -0x239
     729:	85 10 00 00 ff ff ff ff	call -0x1
     730:	bf 27 00 00 00 00 00 00	r7 = r2
     731:	bf 16 00 00 00 00 00 00	r6 = r1
     732:	79 72 08 00 00 00 00 00	r2 = *(u64 *)(r7 + 0x8)
     733:	15 02 29 00 00 00 00 00	if r2 == 0x0 goto +0x29 <custom_panic+0x1410>
     734:	79 71 00 00 00 00 00 00	r1 = *(u64 *)(r7 + 0x0)
     735:	b7 04 00 00 00 00 00 00	r4 = 0x0
     736:	bf 13 00 00 00 00 00 00	r3 = r1
     737:	07 03 00 00 08 00 00 00	r3 += 0x8
     738:	79 38 00 00 00 00 00 00	r8 = *(u64 *)(r3 + 0x0)
     739:	0f 48 00 00 00 00 00 00	r8 += r4
     740:	07 03 00 00 10 00 00 00	r3 += 0x10
     741:	07 02 00 00 ff ff ff ff	r2 += -0x1
     742:	bf 84 00 00 00 00 00 00	r4 = r8
     743:	55 02 fa ff 00 00 00 00	if r2 != 0x0 goto -0x6 <custom_panic+0x12e8>
     744:	79 72 18 00 00 00 00 00	r2 = *(u64 *)(r7 + 0x18)
     745:	15 02 0e 00 00 00 00 00	if r2 == 0x0 goto +0xe <custom_panic+0x1398>
     746:	b7 04 00 00 00 00 00 00	r4 = 0x0
     747:	b7 03 00 00 01 00 00 00	r3 = 0x1
     748:	b7 05 00 00 10 00 00 00	r5 = 0x10
     749:	b7 02 00 00 01 00 00 00	r2 = 0x1
     750:	2d 85 01 00 00 00 00 00	if r5 > r8 goto +0x1 <custom_panic+0x1358>
     751:	b7 02 00 00 00 00 00 00	r2 = 0x0
     752:	79 11 08 00 00 00 00 00	r1 = *(u64 *)(r1 + 0x8)
     753:	15 01 01 00 00 00 00 00	if r1 == 0x0 goto +0x1 <custom_panic+0x1370>
     754:	b7 03 00 00 00 00 00 00	r3 = 0x0
     755:	6d 84 17 00 00 00 00 00	if r4 s> r8 goto +0x17 <custom_panic+0x1430>
     756:	5f 32 00 00 00 00 00 00	r2 &= r3
     757:	57 02 00 00 01 00 00 00	r2 &= 0x1
     758:	55 02 14 00 00 00 00 00	if r2 != 0x0 goto +0x14 <custom_panic+0x1430>
     759:	67 08 00 00 01 00 00 00	r8 <<= 0x1
     760:	b7 00 00 00 01 00 00 00	r0 = 0x1
     761:	b7 01 00 00 00 00 00 00	r1 = 0x0
     762:	15 08 12 00 00 00 00 00	if r8 == 0x0 goto +0x12 <custom_panic+0x1440>
     763:	65 08 02 00 ff ff ff ff	if r8 s> -0x1 goto +0x2 <custom_panic+0x13c8>
     764:	85 10 00 00 c5 ff ff ff	call -0x3b
     765:	85 10 00 00 ff ff ff ff	call -0x1
     766:	bf 81 00 00 00 00 00 00	r1 = r8
     767:	b7 02 00 00 01 00 00 00	r2 = 0x1
     768:	85 10 00 00 49 fd ff ff	call -0x2b7
     769:	bf 81 00 00 00 00 00 00	r1 = r8
     770:	55 00 0a 00 00 00 00 00	if r0 != 0x0 goto +0xa <custom_panic+0x1440>
     771:	b7 01 00 00 01 00 00 00	r1 = 0x1
     772:	bf 82 00 00 00 00 00 00	r2 = r8
     773:	85 10 00 00 cd ff ff ff	call -0x33
     774:	85 10 00 00 ff ff ff ff	call -0x1
     775:	b7 08 00 00 00 00 00 00	r8 = 0x0
     776:	79 71 18 00 00 00 00 00	r1 = *(u64 *)(r7 + 0x18)
     777:	15 01 01 00 00 00 00 00	if r1 == 0x0 goto +0x1 <custom_panic+0x1430>
     778:	05 00 ec ff 00 00 00 00	goto -0x14 <custom_panic+0x1390>
     779:	b7 00 00 00 01 00 00 00	r0 = 0x1
     780:	b7 01 00 00 00 00 00 00	r1 = 0x0
     781:	b7 02 00 00 00 00 00 00	r2 = 0x0
     782:	7b 2a b8 ff 00 00 00 00	*(u64 *)(r10 - 0x48) = r2
     783:	7b 1a b0 ff 00 00 00 00	*(u64 *)(r10 - 0x50) = r1
     784:	7b 0a a8 ff 00 00 00 00	*(u64 *)(r10 - 0x58) = r0
     785:	bf a1 00 00 00 00 00 00	r1 = r10
     786:	07 01 00 00 a8 ff ff ff	r1 += -0x58
     787:	7b 1a c0 ff 00 00 00 00	*(u64 *)(r10 - 0x40) = r1
     788:	bf a8 00 00 00 00 00 00	r8 = r10
     789:	07 08 00 00 c8 ff ff ff	r8 += -0x38
     790:	bf 81 00 00 00 00 00 00	r1 = r8
     791:	bf 72 00 00 00 00 00 00	r2 = r7
     792:	b7 03 00 00 30 00 00 00	r3 = 0x30
     793:	85 10 00 00 94 04 00 00	call 0x494
     794:	bf a1 00 00 00 00 00 00	r1 = r10
     795:	07 01 00 00 c0 ff ff ff	r1 += -0x40
     796:	18 02 00 00 88 40 00 00 00 00 00 00 00 00 00 00	r2 = 0x4088 ll
     798:	bf 83 00 00 00 00 00 00	r3 = r8
     799:	85 10 00 00 33 01 00 00	call 0x133
     800:	55 00 07 00 00 00 00 00	if r0 != 0x0 goto +0x7 <custom_panic+0x1518>
     801:	79 a1 b8 ff 00 00 00 00	r1 = *(u64 *)(r10 - 0x48)
     802:	7b 16 10 00 00 00 00 00	*(u64 *)(r6 + 0x10) = r1
     803:	79 a1 b0 ff 00 00 00 00	r1 = *(u64 *)(r10 - 0x50)
     804:	7b 16 08 00 00 00 00 00	*(u64 *)(r6 + 0x8) = r1
     805:	79 a1 a8 ff 00 00 00 00	r1 = *(u64 *)(r10 - 0x58)
     806:	7b 16 00 00 00 00 00 00	*(u64 *)(r6 + 0x0) = r1
     807:	95 00 00 00 00 00 00 00	exit
     808:	bf a3 00 00 00 00 00 00	r3 = r10
     809:	07 03 00 00 f8 ff ff ff	r3 += -0x8
     810:	18 01 00 00 fd 3e 00 00 00 00 00 00 00 00 00 00	r1 = 0x3efd ll
     812:	b7 02 00 00 33 00 00 00	r2 = 0x33
     813:	18 04 00 00 e0 40 00 00 00 00 00 00 00 00 00 00	r4 = 0x40e0 ll
     815:	18 05 00 00 00 41 00 00 00 00 00 00 00 00 00 00	r5 = 0x4100 ll
     817:	85 10 00 00 01 01 00 00	call 0x101
     818:	85 10 00 00 ff ff ff ff	call -0x1
     819:	bf 27 00 00 00 00 00 00	r7 = r2
     820:	bf 16 00 00 00 00 00 00	r6 = r1
     821:	bf 71 00 00 00 00 00 00	r1 = r7
     822:	67 01 00 00 20 00 00 00	r1 <<= 0x20
     823:	77 01 00 00 20 00 00 00	r1 >>= 0x20
     824:	b7 02 00 00 80 00 00 00	r2 = 0x80
     825:	2d 12 18 00 00 00 00 00	if r2 > r1 goto +0x18 <custom_panic+0x1668>
     826:	b7 02 00 00 00 00 00 00	r2 = 0x0
     827:	63 2a fc ff 00 00 00 00	*(u32 *)(r10 - 0x4) = r2
     828:	b7 02 00 00 00 08 00 00	r2 = 0x800
     829:	2d 12 20 00 00 00 00 00	if r2 > r1 goto +0x20 <custom_panic+0x16c8>
     830:	bf 71 00 00 00 00 00 00	r1 = r7
     831:	67 01 00 00 20 00 00 00	r1 <<= 0x20
     832:	77 01 00 00 20 00 00 00	r1 >>= 0x20
     833:	b7 02 00 00 00 00 01 00	r2 = 0x10000
     834:	2d 12 01 00 00 00 00 00	if r2 > r1 goto +0x1 <custom_panic+0x15f8>
     835:	05 00 23 00 00 00 00 00	goto +0x23 <custom_panic+0x1710>
     836:	bf 71 00 00 00 00 00 00	r1 = r7
     837:	57 01 00 00 3f 00 00 00	r1 &= 0x3f
     838:	47 01 00 00 80 00 00 00	r1 |= 0x80
     839:	73 1a fe ff 00 00 00 00	*(u8 *)(r10 - 0x2) = r1
     840:	bf 71 00 00 00 00 00 00	r1 = r7
     841:	77 01 00 00 0c 00 00 00	r1 >>= 0xc
     842:	47 01 00 00 e0 00 00 00	r1 |= 0xe0
     843:	73 1a fc ff 00 00 00 00	*(u8 *)(r10 - 0x4) = r1
     844:	77 07 00 00 06 00 00 00	r7 >>= 0x6
     845:	57 07 00 00 3f 00 00 00	r7 &= 0x3f
     846:	47 07 00 00 80 00 00 00	r7 |= 0x80
     847:	73 7a fd ff 00 00 00 00	*(u8 *)(r10 - 0x3) = r7
     848:	b7 07 00 00 03 00 00 00	r7 = 0x3
     849:	05 00 28 00 00 00 00 00	goto +0x28 <custom_panic+0x17a8>
     850:	79 62 10 00 00 00 00 00	r2 = *(u64 *)(r6 + 0x10)
     851:	79 61 08 00 00 00 00 00	r1 = *(u64 *)(r6 + 0x8)
     852:	5d 12 03 00 00 00 00 00	if r2 != r1 goto +0x3 <custom_panic+0x1698>
     853:	bf 61 00 00 00 00 00 00	r1 = r6
     854:	85 10 00 00 0f ff ff ff	call -0xf1
     855:	79 62 10 00 00 00 00 00	r2 = *(u64 *)(r6 + 0x10)
     856:	79 61 00 00 00 00 00 00	r1 = *(u64 *)(r6 + 0x0)
     857:	0f 21 00 00 00 00 00 00	r1 += r2
     858:	73 71 00 00 00 00 00 00	*(u8 *)(r1 + 0x0) = r7
     859:	07 02 00 00 01 00 00 00	r2 += 0x1
     860:	7b 26 10 00 00 00 00 00	*(u64 *)(r6 + 0x10) = r2
     861:	05 00 2d 00 00 00 00 00	goto +0x2d <custom_panic+0x1830>
     862:	bf 71 00 00 00 00 00 00	r1 = r7
     863:	57 01 00 00 3f 00 00 00	r1 &= 0x3f
     864:	47 01 00 00 80 00 00 00	r1 |= 0x80
     865:	73 1a fd ff 00 00 00 00	*(u8 *)(r10 - 0x3) = r1
     866:	77 07 00 00 06 00 00 00	r7 >>= 0x6
     867:	47 07 00 00 c0 00 00 00	r7 |= 0xc0
     868:	73 7a fc ff 00 00 00 00	*(u8 *)(r10 - 0x4) = r7
     869:	b7 07 00 00 02 00 00 00	r7 = 0x2
     870:	05 00 13 00 00 00 00 00	goto +0x13 <custom_panic+0x17a8>
     871:	bf 71 00 00 00 00 00 00	r1 = r7
     872:	57 01 00 00 3f 00 00 00	r1 &= 0x3f
     873:	47 01 00 00 80 00 00 00	r1 |= 0x80
     874:	73 1a ff ff 00 00 00 00	*(u8 *)(r10 - 0x1) = r1
     875:	bf 71 00 00 00 00 00 00	r1 = r7
     876:	77 01 00 00 06 00 00 00	r1 >>= 0x6
     877:	57 01 00 00 3f 00 00 00	r1 &= 0x3f
     878:	47 01 00 00 80 00 00 00	r1 |= 0x80
     879:	73 1a fe ff 00 00 00 00	*(u8 *)(r10 - 0x2) = r1
     880:	bf 71 00 00 00 00 00 00	r1 = r7
     881:	77 01 00 00 0c 00 00 00	r1 >>= 0xc
     882:	57 01 00 00 3f 00 00 00	r1 &= 0x3f
     883:	47 01 00 00 80 00 00 00	r1 |= 0x80
     884:	73 1a fd ff 00 00 00 00	*(u8 *)(r10 - 0x3) = r1
     885:	77 07 00 00 12 00 00 00	r7 >>= 0x12
     886:	57 07 00 00 07 00 00 00	r7 &= 0x7
     887:	47 07 00 00 f0 00 00 00	r7 |= 0xf0
     888:	73 7a fc ff 00 00 00 00	*(u8 *)(r10 - 0x4) = r7
     889:	b7 07 00 00 04 00 00 00	r7 = 0x4
     890:	79 68 10 00 00 00 00 00	r8 = *(u64 *)(r6 + 0x10)
     891:	79 61 08 00 00 00 00 00	r1 = *(u64 *)(r6 + 0x8)
     892:	1f 81 00 00 00 00 00 00	r1 -= r8
     893:	3d 71 05 00 00 00 00 00	if r1 >= r7 goto +0x5 <custom_panic+0x17f0>
     894:	bf 61 00 00 00 00 00 00	r1 = r6
     895:	bf 82 00 00 00 00 00 00	r2 = r8
     896:	bf 73 00 00 00 00 00 00	r3 = r7
     897:	85 10 00 00 b4 fe ff ff	call -0x14c
     898:	79 68 10 00 00 00 00 00	r8 = *(u64 *)(r6 + 0x10)
     899:	79 61 00 00 00 00 00 00	r1 = *(u64 *)(r6 + 0x0)
     900:	0f 81 00 00 00 00 00 00	r1 += r8
     901:	bf a2 00 00 00 00 00 00	r2 = r10
     902:	07 02 00 00 fc ff ff ff	r2 += -0x4
     903:	bf 73 00 00 00 00 00 00	r3 = r7
     904:	85 10 00 00 25 04 00 00	call 0x425
     905:	0f 78 00 00 00 00 00 00	r8 += r7
     906:	7b 86 10 00 00 00 00 00	*(u64 *)(r6 + 0x10) = r8
     907:	95 00 00 00 00 00 00 00	exit
     908:	79 11 00 00 00 00 00 00	r1 = *(u64 *)(r1 + 0x0)
     909:	05 00 ff ff 00 00 00 00	goto -0x1 <custom_panic+0x1840>
     910:	95 00 00 00 00 00 00 00	exit
     911:	18 02 00 00 47 51 0c 38 00 00 00 00 d7 a7 48 8e	r2 = -0x71b75828c7f3aeb9 ll
     913:	7b 21 08 00 00 00 00 00	*(u64 *)(r1 + 0x8) = r2
     914:	18 02 00 00 ba b3 64 b6 00 00 00 00 c4 b9 6e fc	r2 = -0x391463b499b4c46 ll
     916:	7b 21 00 00 00 00 00 00	*(u64 *)(r1 + 0x0) = r2
     917:	95 00 00 00 00 00 00 00	exit
     918:	bf 18 00 00 00 00 00 00	r8 = r1
     919:	79 26 20 00 00 00 00 00	r6 = *(u64 *)(r2 + 0x20)
     920:	79 27 28 00 00 00 00 00	r7 = *(u64 *)(r2 + 0x28)
     921:	79 74 18 00 00 00 00 00	r4 = *(u64 *)(r7 + 0x18)
     922:	bf 61 00 00 00 00 00 00	r1 = r6
     923:	18 02 00 00 69 3f 00 00 00 00 00 00 00 00 00 00	r2 = 0x3f69 ll
     925:	b7 03 00 00 0c 00 00 00	r3 = 0xc
     926:	8d 00 00 00 04 00 00 00	callx r0
     927:	b7 09 00 00 01 00 00 00	r9 = 0x1
     928:	55 00 4c 00 00 00 00 00	if r0 != 0x0 goto +0x4c <custom_panic+0x1b40>
     929:	79 81 18 00 00 00 00 00	r1 = *(u64 *)(r8 + 0x18)
     930:	15 01 19 00 00 00 00 00	if r1 == 0x0 goto +0x19 <custom_panic+0x19b8>
     931:	7b 1a 98 ff 00 00 00 00	*(u64 *)(r10 - 0x68) = r1
     932:	18 01 00 00 d0 3c 00 00 00 00 00 00 00 00 00 00	r1 = 0x3cd0 ll
     934:	7b 1a a8 ff 00 00 00 00	*(u64 *)(r10 - 0x58) = r1
     935:	bf a1 00 00 00 00 00 00	r1 = r10
     936:	07 01 00 00 98 ff ff ff	r1 += -0x68
     937:	7b 1a a0 ff 00 00 00 00	*(u64 *)(r10 - 0x60) = r1
     938:	b7 01 00 00 00 00 00 00	r1 = 0x0
     939:	7b 1a f0 ff 00 00 00 00	*(u64 *)(r10 - 0x10) = r1
     940:	bf a1 00 00 00 00 00 00	r1 = r10
     941:	07 01 00 00 a0 ff ff ff	r1 += -0x60
     942:	7b 1a e0 ff 00 00 00 00	*(u64 *)(r10 - 0x20) = r1
     943:	b7 01 00 00 02 00 00 00	r1 = 0x2
     944:	7b 1a d8 ff 00 00 00 00	*(u64 *)(r10 - 0x28) = r1
     945:	18 01 00 00 48 41 00 00 00 00 00 00 00 00 00 00	r1 = 0x4148 ll
     947:	7b 1a d0 ff 00 00 00 00	*(u64 *)(r10 - 0x30) = r1
     948:	7b 9a e8 ff 00 00 00 00	*(u64 *)(r10 - 0x18) = r9
     949:	bf a3 00 00 00 00 00 00	r3 = r10
     950:	07 03 00 00 d0 ff ff ff	r3 += -0x30
     951:	bf 61 00 00 00 00 00 00	r1 = r6
     952:	bf 72 00 00 00 00 00 00	r2 = r7
     953:	85 10 00 00 99 00 00 00	call 0x99
     954:	55 00 32 00 00 00 00 00	if r0 != 0x0 goto +0x32 <custom_panic+0x1b40>
     955:	05 00 11 00 00 00 00 00	goto +0x11 <custom_panic+0x1a40>
     956:	79 89 00 00 00 00 00 00	r9 = *(u64 *)(r8 + 0x0)
     957:	79 81 08 00 00 00 00 00	r1 = *(u64 *)(r8 + 0x8)
     958:	79 13 18 00 00 00 00 00	r3 = *(u64 *)(r1 + 0x18)
     959:	bf a1 00 00 00 00 00 00	r1 = r10
     960:	07 01 00 00 88 ff ff ff	r1 += -0x78
     961:	bf 92 00 00 00 00 00 00	r2 = r9
     962:	8d 00 00 00 03 00 00 00	callx r0
     963:	18 01 00 00 64 ef b1 00 00 00 00 00 81 16 bc fd	r1 = -0x243e97eff4e109c ll
     965:	79 a2 90 ff 00 00 00 00	r2 = *(u64 *)(r10 - 0x70)
     966:	af 12 00 00 00 00 00 00	r2 ^= r1
     967:	18 01 00 00 c1 7b 1e cd 00 00 00 00 9c c8 a2 c1	r1 = -0x3e5d376332e1843f ll
     969:	79 a3 88 ff 00 00 00 00	r3 = *(u64 *)(r10 - 0x78)
     970:	af 13 00 00 00 00 00 00	r3 ^= r1
     971:	4f 23 00 00 00 00 00 00	r3 |= r2
     972:	15 03 22 00 00 00 00 00	if r3 == 0x0 goto +0x22 <custom_panic+0x1b50>
     973:	79 81 10 00 00 00 00 00	r1 = *(u64 *)(r8 + 0x10)
     974:	bf 12 00 00 00 00 00 00	r2 = r1
     975:	07 02 00 00 14 00 00 00	r2 += 0x14
     976:	7b 2a c0 ff 00 00 00 00	*(u64 *)(r10 - 0x40) = r2
     977:	18 02 00 00 10 3c 00 00 00 00 00 00 00 00 00 00	r2 = 0x3c10 ll
     979:	7b 2a c8 ff 00 00 00 00	*(u64 *)(r10 - 0x38) = r2
     980:	7b 2a b8 ff 00 00 00 00	*(u64 *)(r10 - 0x48) = r2
     981:	bf 12 00 00 00 00 00 00	r2 = r1
     982:	07 02 00 00 10 00 00 00	r2 += 0x10
     983:	7b 2a b0 ff 00 00 00 00	*(u64 *)(r10 - 0x50) = r2
     984:	18 02 00 00 08 3d 00 00 00 00 00 00 00 00 00 00	r2 = 0x3d08 ll
     986:	7b 2a a8 ff 00 00 00 00	*(u64 *)(r10 - 0x58) = r2
     987:	7b 1a a0 ff 00 00 00 00	*(u64 *)(r10 - 0x60) = r1
     988:	b7 01 00 00 00 00 00 00	r1 = 0x0
     989:	7b 1a f0 ff 00 00 00 00	*(u64 *)(r10 - 0x10) = r1
     990:	bf a1 00 00 00 00 00 00	r1 = r10
     991:	07 01 00 00 a0 ff ff ff	r1 += -0x60
     992:	7b 1a e0 ff 00 00 00 00	*(u64 *)(r10 - 0x20) = r1
     993:	b7 01 00 00 03 00 00 00	r1 = 0x3
     994:	7b 1a e8 ff 00 00 00 00	*(u64 *)(r10 - 0x18) = r1
     995:	7b 1a d8 ff 00 00 00 00	*(u64 *)(r10 - 0x28) = r1
     996:	18 01 00 00 18 41 00 00 00 00 00 00 00 00 00 00	r1 = 0x4118 ll
     998:	7b 1a d0 ff 00 00 00 00	*(u64 *)(r10 - 0x30) = r1
     999:	bf a3 00 00 00 00 00 00	r3 = r10
    1000:	07 03 00 00 d0 ff ff ff	r3 += -0x30
    1001:	bf 61 00 00 00 00 00 00	r1 = r6
    1002:	bf 72 00 00 00 00 00 00	r2 = r7
    1003:	85 10 00 00 67 00 00 00	call 0x67
    1004:	bf 09 00 00 00 00 00 00	r9 = r0
    1005:	bf 90 00 00 00 00 00 00	r0 = r9
    1006:	95 00 00 00 00 00 00 00	exit
    1007:	7b 9a 98 ff 00 00 00 00	*(u64 *)(r10 - 0x68) = r9
    1008:	18 01 00 00 38 3d 00 00 00 00 00 00 00 00 00 00	r1 = 0x3d38 ll
    1010:	7b 1a a8 ff 00 00 00 00	*(u64 *)(r10 - 0x58) = r1
    1011:	bf a1 00 00 00 00 00 00	r1 = r10
    1012:	07 01 00 00 98 ff ff ff	r1 += -0x68
    1013:	7b 1a a0 ff 00 00 00 00	*(u64 *)(r10 - 0x60) = r1
    1014:	b7 01 00 00 00 00 00 00	r1 = 0x0
    1015:	7b 1a f0 ff 00 00 00 00	*(u64 *)(r10 - 0x10) = r1
    1016:	bf a1 00 00 00 00 00 00	r1 = r10
    1017:	07 01 00 00 a0 ff ff ff	r1 += -0x60
    1018:	7b 1a e0 ff 00 00 00 00	*(u64 *)(r10 - 0x20) = r1
    1019:	b7 01 00 00 02 00 00 00	r1 = 0x2
    1020:	7b 1a d8 ff 00 00 00 00	*(u64 *)(r10 - 0x28) = r1
    1021:	18 01 00 00 48 41 00 00 00 00 00 00 00 00 00 00	r1 = 0x4148 ll
    1023:	7b 1a d0 ff 00 00 00 00	*(u64 *)(r10 - 0x30) = r1
    1024:	b7 09 00 00 01 00 00 00	r9 = 0x1
    1025:	7b 9a e8 ff 00 00 00 00	*(u64 *)(r10 - 0x18) = r9
    1026:	bf a3 00 00 00 00 00 00	r3 = r10
    1027:	07 03 00 00 d0 ff ff ff	r3 += -0x30
    1028:	bf 61 00 00 00 00 00 00	r1 = r6
    1029:	bf 72 00 00 00 00 00 00	r2 = r7
    1030:	85 10 00 00 4c 00 00 00	call 0x4c
    1031:	55 00 e5 ff 00 00 00 00	if r0 != 0x0 goto -0x1b <custom_panic+0x1b40>
    1032:	05 00 c4 ff 00 00 00 00	goto -0x3c <custom_panic+0x1a40>
    1033:	7b 1a f0 ff 00 00 00 00	*(u64 *)(r10 - 0x10) = r1
    1034:	18 01 00 00 68 41 00 00 00 00 00 00 00 00 00 00	r1 = 0x4168 ll
    1036:	7b 1a e0 ff 00 00 00 00	*(u64 *)(r10 - 0x20) = r1
    1037:	18 01 00 00 48 3f 00 00 00 00 00 00 00 00 00 00	r1 = 0x3f48 ll
    1039:	7b 1a d8 ff 00 00 00 00	*(u64 *)(r10 - 0x28) = r1
    1040:	b7 01 00 00 01 00 00 00	r1 = 0x1
    1041:	73 1a f8 ff 00 00 00 00	*(u8 *)(r10 - 0x8) = r1
    1042:	7b 2a e8 ff 00 00 00 00	*(u64 *)(r10 - 0x18) = r2
    1043:	bf a1 00 00 00 00 00 00	r1 = r10
    1044:	07 01 00 00 d8 ff ff ff	r1 += -0x28
    1045:	85 10 00 00 e6 fd ff ff	call -0x21a
    1046:	85 10 00 00 ff ff ff ff	call -0x1
    1047:	7b 2a a8 ff 00 00 00 00	*(u64 *)(r10 - 0x58) = r2
    1048:	7b 1a a0 ff 00 00 00 00	*(u64 *)(r10 - 0x60) = r1
    1049:	b7 01 00 00 00 00 00 00	r1 = 0x0
    1050:	7b 1a d0 ff 00 00 00 00	*(u64 *)(r10 - 0x30) = r1
    1051:	18 01 00 00 88 41 00 00 00 00 00 00 00 00 00 00	r1 = 0x4188 ll
    1053:	7b 1a b0 ff 00 00 00 00	*(u64 *)(r10 - 0x50) = r1
    1054:	b7 01 00 00 02 00 00 00	r1 = 0x2
    1055:	7b 1a b8 ff 00 00 00 00	*(u64 *)(r10 - 0x48) = r1
    1056:	7b 1a c8 ff 00 00 00 00	*(u64 *)(r10 - 0x38) = r1
    1057:	bf a1 00 00 00 00 00 00	r1 = r10
    1058:	07 01 00 00 e0 ff ff ff	r1 += -0x20
    1059:	7b 1a c0 ff 00 00 00 00	*(u64 *)(r10 - 0x40) = r1
    1060:	bf a1 00 00 00 00 00 00	r1 = r10
    1061:	07 01 00 00 a0 ff ff ff	r1 += -0x60
    1062:	7b 1a f0 ff 00 00 00 00	*(u64 *)(r10 - 0x10) = r1
    1063:	18 01 00 00 38 3c 00 00 00 00 00 00 00 00 00 00	r1 = 0x3c38 ll
    1065:	7b 1a f8 ff 00 00 00 00	*(u64 *)(r10 - 0x8) = r1
    1066:	7b 1a e8 ff 00 00 00 00	*(u64 *)(r10 - 0x18) = r1
    1067:	bf a1 00 00 00 00 00 00	r1 = r10
    1068:	07 01 00 00 a8 ff ff ff	r1 += -0x58
    1069:	7b 1a e0 ff 00 00 00 00	*(u64 *)(r10 - 0x20) = r1
    1070:	bf a1 00 00 00 00 00 00	r1 = r10
    1071:	07 01 00 00 b0 ff ff ff	r1 += -0x50
    1072:	bf 32 00 00 00 00 00 00	r2 = r3
    1073:	85 10 00 00 d7 ff ff ff	call -0x29
    1074:	85 10 00 00 ff ff ff ff	call -0x1
    1075:	7b 2a 98 ff 00 00 00 00	*(u64 *)(r10 - 0x68) = r2
    1076:	7b 1a 90 ff 00 00 00 00	*(u64 *)(r10 - 0x70) = r1
    1077:	7b 4a a8 ff 00 00 00 00	*(u64 *)(r10 - 0x58) = r4
    1078:	7b 3a a0 ff 00 00 00 00	*(u64 *)(r10 - 0x60) = r3
    1079:	b7 01 00 00 00 00 00 00	r1 = 0x0
    1080:	7b 1a d0 ff 00 00 00 00	*(u64 *)(r10 - 0x30) = r1
    1081:	18 01 00 00 a8 41 00 00 00 00 00 00 00 00 00 00	r1 = 0x41a8 ll
    1083:	7b 1a b0 ff 00 00 00 00	*(u64 *)(r10 - 0x50) = r1
    1084:	b7 01 00 00 02 00 00 00	r1 = 0x2
    1085:	7b 1a b8 ff 00 00 00 00	*(u64 *)(r10 - 0x48) = r1
    1086:	7b 1a c8 ff 00 00 00 00	*(u64 *)(r10 - 0x38) = r1
    1087:	bf a1 00 00 00 00 00 00	r1 = r10
    1088:	07 01 00 00 e0 ff ff ff	r1 += -0x20
    1089:	7b 1a c0 ff 00 00 00 00	*(u64 *)(r10 - 0x40) = r1
    1090:	18 01 00 00 a0 3c 00 00 00 00 00 00 00 00 00 00	r1 = 0x3ca0 ll
    1092:	7b 1a f8 ff 00 00 00 00	*(u64 *)(r10 - 0x8) = r1
    1093:	bf a1 00 00 00 00 00 00	r1 = r10
    1094:	07 01 00 00 a0 ff ff ff	r1 += -0x60
    1095:	7b 1a f0 ff 00 00 00 00	*(u64 *)(r10 - 0x10) = r1
    1096:	18 01 00 00 08 3d 00 00 00 00 00 00 00 00 00 00	r1 = 0x3d08 ll
    1098:	7b 1a e8 ff 00 00 00 00	*(u64 *)(r10 - 0x18) = r1
    1099:	bf a1 00 00 00 00 00 00	r1 = r10
    1100:	07 01 00 00 90 ff ff ff	r1 += -0x70
    1101:	7b 1a e0 ff 00 00 00 00	*(u64 *)(r10 - 0x20) = r1
    1102:	bf a1 00 00 00 00 00 00	r1 = r10
    1103:	07 01 00 00 b0 ff ff ff	r1 += -0x50
    1104:	bf 52 00 00 00 00 00 00	r2 = r5
    1105:	85 10 00 00 b7 ff ff ff	call -0x49
    1106:	85 10 00 00 ff ff ff ff	call -0x1
    1107:	b7 04 00 00 03 00 00 00	r4 = 0x3
    1108:	73 4a f8 ff 00 00 00 00	*(u8 *)(r10 - 0x8) = r4
    1109:	b7 04 00 00 20 00 00 00	r4 = 0x20
    1110:	7b 4a f0 ff 00 00 00 00	*(u64 *)(r10 - 0x10) = r4
    1111:	7b 2a e8 ff 00 00 00 00	*(u64 *)(r10 - 0x18) = r2
    1112:	7b 1a e0 ff 00 00 00 00	*(u64 *)(r10 - 0x20) = r1
    1113:	b7 07 00 00 00 00 00 00	r7 = 0x0
    1114:	7b 7a d0 ff 00 00 00 00	*(u64 *)(r10 - 0x30) = r7
    1115:	7b 7a c0 ff 00 00 00 00	*(u64 *)(r10 - 0x40) = r7
    1116:	79 38 20 00 00 00 00 00	r8 = *(u64 *)(r3 + 0x20)
    1117:	7b 3a b8 ff 00 00 00 00	*(u64 *)(r10 - 0x48) = r3
    1118:	55 08 1c 00 00 00 00 00	if r8 != 0x0 goto +0x1c <custom_panic+0x1fb0>
    1119:	79 36 18 00 00 00 00 00	r6 = *(u64 *)(r3 + 0x18)
    1120:	15 06 68 00 00 00 00 00	if r6 == 0x0 goto +0x68 <custom_panic+0x2220>
    1121:	79 a1 b8 ff 00 00 00 00	r1 = *(u64 *)(r10 - 0x48)
    1122:	79 18 10 00 00 00 00 00	r8 = *(u64 *)(r1 + 0x10)
    1123:	07 08 00 00 08 00 00 00	r8 += 0x8
    1124:	67 06 00 00 04 00 00 00	r6 <<= 0x4
    1125:	79 19 00 00 00 00 00 00	r9 = *(u64 *)(r1 + 0x0)
    1126:	07 09 00 00 08 00 00 00	r9 += 0x8
    1127:	79 93 00 00 00 00 00 00	r3 = *(u64 *)(r9 + 0x0)
    1128:	15 03 06 00 00 00 00 00	if r3 == 0x0 goto +0x6 <custom_panic+0x1f50>
    1129:	79 a1 e8 ff 00 00 00 00	r1 = *(u64 *)(r10 - 0x18)
    1130:	79 14 18 00 00 00 00 00	r4 = *(u64 *)(r1 + 0x18)
    1131:	79 92 f8 ff 00 00 00 00	r2 = *(u64 *)(r9 - 0x8)
    1132:	79 a1 e0 ff 00 00 00 00	r1 = *(u64 *)(r10 - 0x20)
    1133:	8d 00 00 00 04 00 00 00	callx r0
    1134:	55 00 6b 00 00 00 00 00	if r0 != 0x0 goto +0x6b <custom_panic+0x22a8>
    1135:	79 81 f8 ff 00 00 00 00	r1 = *(u64 *)(r8 - 0x8)
    1136:	79 83 00 00 00 00 00 00	r3 = *(u64 *)(r8 + 0x0)
    1137:	bf a2 00 00 00 00 00 00	r2 = r10
    1138:	07 02 00 00 c0 ff ff ff	r2 += -0x40
    1139:	8d 00 00 00 03 00 00 00	callx r0
    1140:	55 00 65 00 00 00 00 00	if r0 != 0x0 goto +0x65 <custom_panic+0x22a8>
    1141:	07 07 00 00 01 00 00 00	r7 += 0x1
    1142:	07 08 00 00 10 00 00 00	r8 += 0x10
    1143:	07 09 00 00 10 00 00 00	r9 += 0x10
    1144:	07 06 00 00 f0 ff ff ff	r6 += -0x10
    1145:	15 06 4f 00 00 00 00 00	if r6 == 0x0 goto +0x4f <custom_panic+0x2220>
    1146:	05 00 ec ff 00 00 00 00	goto -0x14 <custom_panic+0x1f10>
    1147:	79 39 28 00 00 00 00 00	r9 = *(u64 *)(r3 + 0x28)
    1148:	15 09 4c 00 00 00 00 00	if r9 == 0x0 goto +0x4c <custom_panic+0x2220>
    1149:	07 08 00 00 18 00 00 00	r8 += 0x18
    1150:	27 09 00 00 38 00 00 00	r9 *= 0x38
    1151:	79 a1 b8 ff 00 00 00 00	r1 = *(u64 *)(r10 - 0x48)
    1152:	79 16 00 00 00 00 00 00	r6 = *(u64 *)(r1 + 0x0)
    1153:	07 06 00 00 08 00 00 00	r6 += 0x8
    1154:	79 63 00 00 00 00 00 00	r3 = *(u64 *)(r6 + 0x0)
    1155:	15 03 06 00 00 00 00 00	if r3 == 0x0 goto +0x6 <custom_panic+0x2028>
    1156:	79 a1 e8 ff 00 00 00 00	r1 = *(u64 *)(r10 - 0x18)
    1157:	79 14 18 00 00 00 00 00	r4 = *(u64 *)(r1 + 0x18)
    1158:	79 62 f8 ff 00 00 00 00	r2 = *(u64 *)(r6 - 0x8)
    1159:	79 a1 e0 ff 00 00 00 00	r1 = *(u64 *)(r10 - 0x20)
    1160:	8d 00 00 00 04 00 00 00	callx r0
    1161:	55 00 50 00 00 00 00 00	if r0 != 0x0 goto +0x50 <custom_panic+0x22a8>
    1162:	79 a1 b8 ff 00 00 00 00	r1 = *(u64 *)(r10 - 0x48)
    1163:	79 12 10 00 00 00 00 00	r2 = *(u64 *)(r1 + 0x10)
    1164:	61 81 10 00 00 00 00 00	r1 = *(u32 *)(r8 + 0x10)
    1165:	63 1a f0 ff 00 00 00 00	*(u32 *)(r10 - 0x10) = r1
    1166:	71 81 18 00 00 00 00 00	r1 = *(u8 *)(r8 + 0x18)
    1167:	73 1a f8 ff 00 00 00 00	*(u8 *)(r10 - 0x8) = r1
    1168:	61 81 14 00 00 00 00 00	r1 = *(u32 *)(r8 + 0x14)
    1169:	63 1a f4 ff 00 00 00 00	*(u32 *)(r10 - 0xc) = r1
    1170:	79 81 00 00 00 00 00 00	r1 = *(u64 *)(r8 + 0x0)
    1171:	79 84 f8 ff 00 00 00 00	r4 = *(u64 *)(r8 - 0x8)
    1172:	15 04 03 00 00 00 00 00	if r4 == 0x0 goto +0x3 <custom_panic+0x2098>
    1173:	b7 03 00 00 00 00 00 00	r3 = 0x0
    1174:	15 04 03 00 01 00 00 00	if r4 == 0x1 goto +0x3 <custom_panic+0x20a8>
    1175:	05 00 0c 00 00 00 00 00	goto +0xc <custom_panic+0x20f8>
    1176:	b7 03 00 00 01 00 00 00	r3 = 0x1
    1177:	05 00 0a 00 00 00 00 00	goto +0xa <custom_panic+0x20f8>
    1178:	67 01 00 00 04 00 00 00	r1 <<= 0x4
    1179:	bf 24 00 00 00 00 00 00	r4 = r2
    1180:	0f 14 00 00 00 00 00 00	r4 += r1
    1181:	79 45 08 00 00 00 00 00	r5 = *(u64 *)(r4 + 0x8)
    1182:	18 00 00 00 60 1c 00 00 00 00 00 00 00 00 00 00	r0 = 0x1c60 ll
    1184:	5d 05 03 00 00 00 00 00	if r5 != r0 goto +0x3 <custom_panic+0x20f8>
    1185:	b7 03 00 00 01 00 00 00	r3 = 0x1
    1186:	79 41 00 00 00 00 00 00	r1 = *(u64 *)(r4 + 0x0)
    1187:	79 11 00 00 00 00 00 00	r1 = *(u64 *)(r1 + 0x0)
    1188:	7b 1a c8 ff 00 00 00 00	*(u64 *)(r10 - 0x38) = r1
    1189:	7b 3a c0 ff 00 00 00 00	*(u64 *)(r10 - 0x40) = r3
    1190:	79 81 f0 ff 00 00 00 00	r1 = *(u64 *)(r8 - 0x10)
    1191:	79 84 e8 ff 00 00 00 00	r4 = *(u64 *)(r8 - 0x18)
    1192:	15 04 03 00 00 00 00 00	if r4 == 0x0 goto +0x3 <custom_panic+0x2138>
    1193:	b7 03 00 00 00 00 00 00	r3 = 0x0
    1194:	15 04 03 00 01 00 00 00	if r4 == 0x1 goto +0x3 <custom_panic+0x2148>
    1195:	05 00 0c 00 00 00 00 00	goto +0xc <custom_panic+0x2198>
    1196:	b7 03 00 00 01 00 00 00	r3 = 0x1
    1197:	05 00 0a 00 00 00 00 00	goto +0xa <custom_panic+0x2198>
    1198:	67 01 00 00 04 00 00 00	r1 <<= 0x4
    1199:	bf 24 00 00 00 00 00 00	r4 = r2
    1200:	0f 14 00 00 00 00 00 00	r4 += r1
    1201:	79 45 08 00 00 00 00 00	r5 = *(u64 *)(r4 + 0x8)
    1202:	18 00 00 00 60 1c 00 00 00 00 00 00 00 00 00 00	r0 = 0x1c60 ll
    1204:	5d 05 03 00 00 00 00 00	if r5 != r0 goto +0x3 <custom_panic+0x2198>
    1205:	b7 03 00 00 01 00 00 00	r3 = 0x1
    1206:	79 41 00 00 00 00 00 00	r1 = *(u64 *)(r4 + 0x0)
    1207:	79 11 00 00 00 00 00 00	r1 = *(u64 *)(r1 + 0x0)
    1208:	7b 1a d8 ff 00 00 00 00	*(u64 *)(r10 - 0x28) = r1
    1209:	7b 3a d0 ff 00 00 00 00	*(u64 *)(r10 - 0x30) = r3
    1210:	79 81 08 00 00 00 00 00	r1 = *(u64 *)(r8 + 0x8)
    1211:	67 01 00 00 04 00 00 00	r1 <<= 0x4
    1212:	0f 12 00 00 00 00 00 00	r2 += r1
    1213:	79 21 00 00 00 00 00 00	r1 = *(u64 *)(r2 + 0x0)
    1214:	79 23 08 00 00 00 00 00	r3 = *(u64 *)(r2 + 0x8)
    1215:	bf a2 00 00 00 00 00 00	r2 = r10
    1216:	07 02 00 00 c0 ff ff ff	r2 += -0x40
    1217:	8d 00 00 00 03 00 00 00	callx r0
    1218:	55 00 17 00 00 00 00 00	if r0 != 0x0 goto +0x17 <custom_panic+0x22a8>
    1219:	07 07 00 00 01 00 00 00	r7 += 0x1
    1220:	07 08 00 00 38 00 00 00	r8 += 0x38
    1221:	07 06 00 00 10 00 00 00	r6 += 0x10
    1222:	07 09 00 00 c8 ff ff ff	r9 += -0x38
    1223:	15 09 01 00 00 00 00 00	if r9 == 0x0 goto +0x1 <custom_panic+0x2220>
    1224:	05 00 b9 ff 00 00 00 00	goto -0x47 <custom_panic+0x1fe8>
    1225:	79 a1 b8 ff 00 00 00 00	r1 = *(u64 *)(r10 - 0x48)
    1226:	79 11 08 00 00 00 00 00	r1 = *(u64 *)(r1 + 0x8)
    1227:	2d 71 01 00 00 00 00 00	if r1 > r7 goto +0x1 <custom_panic+0x2240>
    1228:	05 00 0b 00 00 00 00 00	goto +0xb <custom_panic+0x2298>
    1229:	67 07 00 00 04 00 00 00	r7 <<= 0x4
    1230:	79 a1 b8 ff 00 00 00 00	r1 = *(u64 *)(r10 - 0x48)
    1231:	79 11 00 00 00 00 00 00	r1 = *(u64 *)(r1 + 0x0)
    1232:	0f 71 00 00 00 00 00 00	r1 += r7
    1233:	79 13 08 00 00 00 00 00	r3 = *(u64 *)(r1 + 0x8)
    1234:	79 12 00 00 00 00 00 00	r2 = *(u64 *)(r1 + 0x0)
    1235:	79 a1 e8 ff 00 00 00 00	r1 = *(u64 *)(r10 - 0x18)
    1236:	79 14 18 00 00 00 00 00	r4 = *(u64 *)(r1 + 0x18)
    1237:	79 a1 e0 ff 00 00 00 00	r1 = *(u64 *)(r10 - 0x20)
    1238:	8d 00 00 00 04 00 00 00	callx r0
    1239:	55 00 02 00 00 00 00 00	if r0 != 0x0 goto +0x2 <custom_panic+0x22a8>
    1240:	b7 00 00 00 00 00 00 00	r0 = 0x0
    1241:	05 00 01 00 00 00 00 00	goto +0x1 <custom_panic+0x22b0>
    1242:	b7 00 00 00 01 00 00 00	r0 = 0x1
    1243:	95 00 00 00 00 00 00 00	exit
    1244:	bf 48 00 00 00 00 00 00	r8 = r4
    1245:	bf 10 00 00 00 00 00 00	r0 = r1
    1246:	79 59 08 f0 00 00 00 00	r9 = *(u64 *)(r5 - 0xff8)
    1247:	15 02 0a 00 00 00 00 00	if r2 == 0x0 goto +0xa <custom_panic+0x2328>
    1248:	b7 01 00 00 00 00 11 00	r1 = 0x110000
    1249:	7b 1a f0 ff 00 00 00 00	*(u64 *)(r10 - 0x10) = r1
    1250:	61 07 34 00 00 00 00 00	r7 = *(u32 *)(r0 + 0x34)
    1251:	bf 71 00 00 00 00 00 00	r1 = r7
    1252:	57 01 00 00 01 00 00 00	r1 &= 0x1
    1253:	bf 96 00 00 00 00 00 00	r6 = r9
    1254:	15 01 08 00 00 00 00 00	if r1 == 0x0 goto +0x8 <custom_panic+0x2350>
    1255:	b7 01 00 00 2b 00 00 00	r1 = 0x2b
    1256:	7b 1a f0 ff 00 00 00 00	*(u64 *)(r10 - 0x10) = r1
    1257:	05 00 03 00 00 00 00 00	goto +0x3 <custom_panic+0x2340>
    1258:	b7 01 00 00 2d 00 00 00	r1 = 0x2d
    1259:	7b 1a f0 ff 00 00 00 00	*(u64 *)(r10 - 0x10) = r1
    1260:	61 07 34 00 00 00 00 00	r7 = *(u32 *)(r0 + 0x34)
    1261:	bf 96 00 00 00 00 00 00	r6 = r9
    1262:	07 06 00 00 01 00 00 00	r6 += 0x1
    1263:	79 51 00 f0 00 00 00 00	r1 = *(u64 *)(r5 - 0x1000)
    1264:	7b 1a e0 ff 00 00 00 00	*(u64 *)(r10 - 0x20) = r1
    1265:	b7 04 00 00 00 00 00 00	r4 = 0x0
    1266:	bf 71 00 00 00 00 00 00	r1 = r7
    1267:	57 01 00 00 04 00 00 00	r1 &= 0x4
    1268:	bf 85 00 00 00 00 00 00	r5 = r8
    1269:	15 01 21 00 00 00 00 00	if r1 == 0x0 goto +0x21 <custom_panic+0x2490>
    1270:	b7 01 00 00 20 00 00 00	r1 = 0x20
    1271:	7b 0a d8 ff 00 00 00 00	*(u64 *)(r10 - 0x28) = r0
    1272:	7b 3a f8 ff 00 00 00 00	*(u64 *)(r10 - 0x8) = r3
    1273:	2d 51 05 00 00 00 00 00	if r1 > r5 goto +0x5 <custom_panic+0x23d0>
    1274:	bf 31 00 00 00 00 00 00	r1 = r3
    1275:	bf 58 00 00 00 00 00 00	r8 = r5
    1276:	bf 52 00 00 00 00 00 00	r2 = r5
    1277:	85 10 00 00 6e 01 00 00	call 0x16e
    1278:	05 00 0b 00 00 00 00 00	goto +0xb <custom_panic+0x2428>
    1279:	bf 51 00 00 00 00 00 00	r1 = r5
    1280:	b7 00 00 00 00 00 00 00	r0 = 0x0
    1281:	bf 18 00 00 00 00 00 00	r8 = r1
    1282:	15 01 07 00 00 00 00 00	if r1 == 0x0 goto +0x7 <custom_panic+0x2428>
    1283:	79 a1 f8 ff 00 00 00 00	r1 = *(u64 *)(r10 - 0x8)
    1284:	bf 82 00 00 00 00 00 00	r2 = r8
    1285:	05 00 0a 00 00 00 00 00	goto +0xa <custom_panic+0x2458>
    1286:	0f 30 00 00 00 00 00 00	r0 += r3
    1287:	07 01 00 00 01 00 00 00	r1 += 0x1
    1288:	07 02 00 00 ff ff ff ff	r2 += -0x1
    1289:	55 02 06 00 00 00 00 00	if r2 != 0x0 goto +0x6 <custom_panic+0x2458>
    1290:	0f 60 00 00 00 00 00 00	r0 += r6
    1291:	79 a4 f8 ff 00 00 00 00	r4 = *(u64 *)(r10 - 0x8)
    1292:	bf 06 00 00 00 00 00 00	r6 = r0
    1293:	bf 85 00 00 00 00 00 00	r5 = r8
    1294:	79 a0 d8 ff 00 00 00 00	r0 = *(u64 *)(r10 - 0x28)
    1295:	05 00 07 00 00 00 00 00	goto +0x7 <custom_panic+0x2490>
    1296:	71 14 00 00 00 00 00 00	r4 = *(u8 *)(r1 + 0x0)
    1297:	67 04 00 00 38 00 00 00	r4 <<= 0x38
    1298:	c7 04 00 00 38 00 00 00	r4 s>>= 0x38
    1299:	b7 03 00 00 01 00 00 00	r3 = 0x1
    1300:	65 04 f1 ff bf ff ff ff	if r4 s> -0x41 goto -0xf <custom_panic+0x2408>
    1301:	b7 03 00 00 00 00 00 00	r3 = 0x0
    1302:	05 00 ef ff 00 00 00 00	goto -0x11 <custom_panic+0x2408>
    1303:	7b 9a e8 ff 00 00 00 00	*(u64 *)(r10 - 0x18) = r9
    1304:	79 01 00 00 00 00 00 00	r1 = *(u64 *)(r0 + 0x0)
    1305:	55 01 09 00 00 00 00 00	if r1 != 0x0 goto +0x9 <custom_panic+0x24f0>
    1306:	79 08 28 00 00 00 00 00	r8 = *(u64 *)(r0 + 0x28)
    1307:	79 06 20 00 00 00 00 00	r6 = *(u64 *)(r0 + 0x20)
    1308:	bf 61 00 00 00 00 00 00	r1 = r6
    1309:	bf 82 00 00 00 00 00 00	r2 = r8
    1310:	79 a3 f0 ff 00 00 00 00	r3 = *(u64 *)(r10 - 0x10)
    1311:	85 10 00 00 81 00 00 00	call 0x81
    1312:	b7 07 00 00 01 00 00 00	r7 = 0x1
    1313:	55 00 20 00 00 00 00 00	if r0 != 0x0 goto +0x20 <custom_panic+0x25e8>
    1314:	05 00 19 00 00 00 00 00	goto +0x19 <custom_panic+0x25b8>
    1315:	79 09 08 00 00 00 00 00	r9 = *(u64 *)(r0 + 0x8)
    1316:	2d 69 01 00 00 00 00 00	if r9 > r6 goto +0x1 <custom_panic+0x2508>
    1317:	05 00 0e 00 00 00 00 00	goto +0xe <custom_panic+0x2578>
    1318:	57 07 00 00 08 00 00 00	r7 &= 0x8
    1319:	15 07 01 00 00 00 00 00	if r7 == 0x0 goto +0x1 <custom_panic+0x2520>
    1320:	05 00 1c 00 00 00 00 00	goto +0x1c <custom_panic+0x2600>
    1321:	1f 69 00 00 00 00 00 00	r9 -= r6
    1322:	71 08 38 00 00 00 00 00	r8 = *(u8 *)(r0 + 0x38)
    1323:	7b 5a c8 ff 00 00 00 00	*(u64 *)(r10 - 0x38) = r5
    1324:	7b 4a c0 ff 00 00 00 00	*(u64 *)(r10 - 0x40) = r4
    1325:	65 08 31 00 01 00 00 00	if r8 s> 0x1 goto +0x31 <custom_panic+0x26d0>
    1326:	7b 9a d0 ff 00 00 00 00	*(u64 *)(r10 - 0x30) = r9
    1327:	15 08 43 00 00 00 00 00	if r8 == 0x0 goto +0x43 <custom_panic+0x2770>
    1328:	b7 01 00 00 00 00 00 00	r1 = 0x0
    1329:	7b 1a d0 ff 00 00 00 00	*(u64 *)(r10 - 0x30) = r1
    1330:	bf 98 00 00 00 00 00 00	r8 = r9
    1331:	05 00 3f 00 00 00 00 00	goto +0x3f <custom_panic+0x2770>
    1332:	79 08 28 00 00 00 00 00	r8 = *(u64 *)(r0 + 0x28)
    1333:	79 06 20 00 00 00 00 00	r6 = *(u64 *)(r0 + 0x20)
    1334:	bf 61 00 00 00 00 00 00	r1 = r6
    1335:	bf 82 00 00 00 00 00 00	r2 = r8
    1336:	79 a3 f0 ff 00 00 00 00	r3 = *(u64 *)(r10 - 0x10)
    1337:	85 10 00 00 67 00 00 00	call 0x67
    1338:	b7 07 00 00 01 00 00 00	r7 = 0x1
    1339:	55 00 06 00 00 00 00 00	if r0 != 0x0 goto +0x6 <custom_panic+0x25e8>
    1340:	79 84 18 00 00 00 00 00	r4 = *(u64 *)(r8 + 0x18)
    1341:	bf 61 00 00 00 00 00 00	r1 = r6
    1342:	79 a2 e0 ff 00 00 00 00	r2 = *(u64 *)(r10 - 0x20)
    1343:	79 a3 e8 ff 00 00 00 00	r3 = *(u64 *)(r10 - 0x18)
    1344:	8d 00 00 00 04 00 00 00	callx r0
    1345:	bf 07 00 00 00 00 00 00	r7 = r0
    1346:	57 07 00 00 01 00 00 00	r7 &= 0x1
    1347:	bf 70 00 00 00 00 00 00	r0 = r7
    1348:	95 00 00 00 00 00 00 00	exit
    1349:	61 01 30 00 00 00 00 00	r1 = *(u32 *)(r0 + 0x30)
    1350:	7b 1a d0 ff 00 00 00 00	*(u64 *)(r10 - 0x30) = r1
    1351:	b7 01 00 00 30 00 00 00	r1 = 0x30
    1352:	63 10 30 00 00 00 00 00	*(u32 *)(r0 + 0x30) = r1
    1353:	71 01 38 00 00 00 00 00	r1 = *(u8 *)(r0 + 0x38)
    1354:	7b 1a b8 ff 00 00 00 00	*(u64 *)(r10 - 0x48) = r1
    1355:	b7 07 00 00 01 00 00 00	r7 = 0x1
    1356:	73 70 38 00 00 00 00 00	*(u8 *)(r0 + 0x38) = r7
    1357:	79 01 20 00 00 00 00 00	r1 = *(u64 *)(r0 + 0x20)
    1358:	7b 0a d8 ff 00 00 00 00	*(u64 *)(r10 - 0x28) = r0
    1359:	79 02 28 00 00 00 00 00	r2 = *(u64 *)(r0 + 0x28)
    1360:	7b 1a f8 ff 00 00 00 00	*(u64 *)(r10 - 0x8) = r1
    1361:	bf 28 00 00 00 00 00 00	r8 = r2
    1362:	79 a3 f0 ff 00 00 00 00	r3 = *(u64 *)(r10 - 0x10)
    1363:	85 10 00 00 4d 00 00 00	call 0x4d
    1364:	55 00 ed ff 00 00 00 00	if r0 != 0x0 goto -0x13 <custom_panic+0x25e8>
    1365:	1f 69 00 00 00 00 00 00	r9 -= r6
    1366:	07 09 00 00 01 00 00 00	r9 += 0x1
    1367:	07 09 00 00 ff ff ff ff	r9 += -0x1
    1368:	15 09 08 00 00 00 00 00	if r9 == 0x0 goto +0x8 <custom_panic+0x26e0>
    1369:	79 83 20 00 00 00 00 00	r3 = *(u64 *)(r8 + 0x20)
    1370:	79 a1 f8 ff 00 00 00 00	r1 = *(u64 *)(r10 - 0x8)
    1371:	b7 02 00 00 30 00 00 00	r2 = 0x30
    1372:	8d 00 00 00 03 00 00 00	callx r0
    1373:	55 00 e4 ff 00 00 00 00	if r0 != 0x0 goto -0x1c <custom_panic+0x25e8>
    1374:	05 00 f8 ff 00 00 00 00	goto -0x8 <custom_panic+0x2690>
    1375:	15 08 0e 00 02 00 00 00	if r8 == 0x2 goto +0xe <custom_panic+0x2748>
    1376:	05 00 cf ff 00 00 00 00	goto -0x31 <custom_panic+0x2558>
    1377:	79 84 18 00 00 00 00 00	r4 = *(u64 *)(r8 + 0x18)
    1378:	79 a1 f8 ff 00 00 00 00	r1 = *(u64 *)(r10 - 0x8)
    1379:	79 a2 e0 ff 00 00 00 00	r2 = *(u64 *)(r10 - 0x20)
    1380:	79 a3 e8 ff 00 00 00 00	r3 = *(u64 *)(r10 - 0x18)
    1381:	8d 00 00 00 04 00 00 00	callx r0
    1382:	55 00 db ff 00 00 00 00	if r0 != 0x0 goto -0x25 <custom_panic+0x25e8>
    1383:	79 a8 d8 ff 00 00 00 00	r8 = *(u64 *)(r10 - 0x28)
    1384:	79 a1 b8 ff 00 00 00 00	r1 = *(u64 *)(r10 - 0x48)
    1385:	73 18 38 00 00 00 00 00	*(u8 *)(r8 + 0x38) = r1
    1386:	79 a1 d0 ff 00 00 00 00	r1 = *(u64 *)(r10 - 0x30)
    1387:	63 18 30 00 00 00 00 00	*(u32 *)(r8 + 0x30) = r1
    1388:	b7 07 00 00 00 00 00 00	r7 = 0x0
    1389:	05 00 d4 ff 00 00 00 00	goto -0x2c <custom_panic+0x25e8>
    1390:	bf 98 00 00 00 00 00 00	r8 = r9
    1391:	77 08 00 00 01 00 00 00	r8 >>= 0x1
    1392:	07 09 00 00 01 00 00 00	r9 += 0x1
    1393:	77 09 00 00 01 00 00 00	r9 >>= 0x1
    1394:	7b 9a d0 ff 00 00 00 00	*(u64 *)(r10 - 0x30) = r9
    1395:	07 08 00 00 01 00 00 00	r8 += 0x1
    1396:	61 01 30 00 00 00 00 00	r1 = *(u32 *)(r0 + 0x30)
    1397:	7b 1a f8 ff 00 00 00 00	*(u64 *)(r10 - 0x8) = r1
    1398:	79 06 28 00 00 00 00 00	r6 = *(u64 *)(r0 + 0x28)
    1399:	79 09 20 00 00 00 00 00	r9 = *(u64 *)(r0 + 0x20)
    1400:	b7 07 00 00 01 00 00 00	r7 = 0x1
    1401:	07 08 00 00 ff ff ff ff	r8 += -0x1
    1402:	15 08 06 00 00 00 00 00	if r8 == 0x0 goto +0x6 <custom_panic+0x27e0>
    1403:	79 63 20 00 00 00 00 00	r3 = *(u64 *)(r6 + 0x20)
    1404:	bf 91 00 00 00 00 00 00	r1 = r9
    1405:	79 a2 f8 ff 00 00 00 00	r2 = *(u64 *)(r10 - 0x8)
    1406:	8d 00 00 00 03 00 00 00	callx r0
    1407:	55 00 c2 ff 00 00 00 00	if r0 != 0x0 goto -0x3e <custom_panic+0x25e8>
    1408:	05 00 f8 ff 00 00 00 00	goto -0x8 <custom_panic+0x27a0>
    1409:	b7 07 00 00 01 00 00 00	r7 = 0x1
    1410:	79 a1 f8 ff 00 00 00 00	r1 = *(u64 *)(r10 - 0x8)
    1411:	15 01 be ff 00 00 11 00	if r1 == 0x110000 goto -0x42 <custom_panic+0x25e8>
    1412:	bf 91 00 00 00 00 00 00	r1 = r9
    1413:	bf 62 00 00 00 00 00 00	r2 = r6
    1414:	79 a3 f0 ff 00 00 00 00	r3 = *(u64 *)(r10 - 0x10)
    1415:	79 a4 c0 ff 00 00 00 00	r4 = *(u64 *)(r10 - 0x40)
    1416:	79 a5 c8 ff 00 00 00 00	r5 = *(u64 *)(r10 - 0x38)
    1417:	85 10 00 00 17 00 00 00	call 0x17
    1418:	55 00 b7 ff 00 00 00 00	if r0 != 0x0 goto -0x49 <custom_panic+0x25e8>
    1419:	79 64 18 00 00 00 00 00	r4 = *(u64 *)(r6 + 0x18)
    1420:	bf 91 00 00 00 00 00 00	r1 = r9
    1421:	79 a2 e0 ff 00 00 00 00	r2 = *(u64 *)(r10 - 0x20)
    1422:	79 a3 e8 ff 00 00 00 00	r3 = *(u64 *)(r10 - 0x18)
    1423:	8d 00 00 00 04 00 00 00	callx r0
    1424:	55 00 b1 ff 00 00 00 00	if r0 != 0x0 goto -0x4f <custom_panic+0x25e8>
    1425:	b7 07 00 00 00 00 00 00	r7 = 0x0
    1426:	79 a8 d0 ff 00 00 00 00	r8 = *(u64 *)(r10 - 0x30)
    1427:	bf 81 00 00 00 00 00 00	r1 = r8
    1428:	1d 78 08 00 00 00 00 00	if r8 == r7 goto +0x8 <custom_panic+0x28c0>
    1429:	79 63 20 00 00 00 00 00	r3 = *(u64 *)(r6 + 0x20)
    1430:	bf 91 00 00 00 00 00 00	r1 = r9
    1431:	79 a2 f8 ff 00 00 00 00	r2 = *(u64 *)(r10 - 0x8)
    1432:	8d 00 00 00 03 00 00 00	callx r0
    1433:	07 07 00 00 01 00 00 00	r7 += 0x1
    1434:	15 00 f8 ff 00 00 00 00	if r0 == 0x0 goto -0x8 <custom_panic+0x2870>
    1435:	07 07 00 00 ff ff ff ff	r7 += -0x1
    1436:	bf 71 00 00 00 00 00 00	r1 = r7
    1437:	b7 07 00 00 01 00 00 00	r7 = 0x1
    1438:	2d 18 a3 ff 00 00 00 00	if r8 > r1 goto -0x5d <custom_panic+0x25e8>
    1439:	b7 07 00 00 00 00 00 00	r7 = 0x0
    1440:	05 00 a1 ff 00 00 00 00	goto -0x5f <custom_panic+0x25e8>
    1441:	bf 56 00 00 00 00 00 00	r6 = r5
    1442:	bf 47 00 00 00 00 00 00	r7 = r4
    1443:	bf 29 00 00 00 00 00 00	r9 = r2
    1444:	bf 18 00 00 00 00 00 00	r8 = r1
    1445:	bf 31 00 00 00 00 00 00	r1 = r3
    1446:	67 01 00 00 20 00 00 00	r1 <<= 0x20
    1447:	77 01 00 00 20 00 00 00	r1 >>= 0x20
    1448:	15 01 07 00 00 00 11 00	if r1 == 0x110000 goto +0x7 <custom_panic+0x2958>
    1449:	79 94 20 00 00 00 00 00	r4 = *(u64 *)(r9 + 0x20)
    1450:	bf 81 00 00 00 00 00 00	r1 = r8
    1451:	bf 32 00 00 00 00 00 00	r2 = r3
    1452:	8d 00 00 00 04 00 00 00	callx r0
    1453:	bf 01 00 00 00 00 00 00	r1 = r0
    1454:	b7 00 00 00 01 00 00 00	r0 = 0x1
    1455:	55 01 02 00 00 00 00 00	if r1 != 0x0 goto +0x2 <custom_panic+0x2968>
    1456:	b7 00 00 00 00 00 00 00	r0 = 0x0
    1457:	55 07 01 00 00 00 00 00	if r7 != 0x0 goto +0x1 <custom_panic+0x2970>
    1458:	95 00 00 00 00 00 00 00	exit
    1459:	79 94 18 00 00 00 00 00	r4 = *(u64 *)(r9 + 0x18)
    1460:	bf 81 00 00 00 00 00 00	r1 = r8
    1461:	bf 72 00 00 00 00 00 00	r2 = r7
    1462:	bf 63 00 00 00 00 00 00	r3 = r6
    1463:	8d 00 00 00 04 00 00 00	callx r0
    1464:	05 00 f9 ff 00 00 00 00	goto -0x7 <custom_panic+0x2968>
    1465:	bf 18 00 00 00 00 00 00	r8 = r1
    1466:	79 85 10 00 00 00 00 00	r5 = *(u64 *)(r8 + 0x10)
    1467:	79 81 00 00 00 00 00 00	r1 = *(u64 *)(r8 + 0x0)
    1468:	bf 14 00 00 00 00 00 00	r4 = r1
    1469:	4f 54 00 00 00 00 00 00	r4 |= r5
    1470:	15 04 33 00 00 00 00 00	if r4 == 0x0 goto +0x33 <custom_panic+0x2b68>
    1471:	7b 2a f0 ff 00 00 00 00	*(u64 *)(r10 - 0x10) = r2
    1472:	7b 3a e8 ff 00 00 00 00	*(u64 *)(r10 - 0x18) = r3
    1473:	15 05 43 00 00 00 00 00	if r5 == 0x0 goto +0x43 <custom_panic+0x2c00>
    1474:	79 a7 f0 ff 00 00 00 00	r7 = *(u64 *)(r10 - 0x10)
    1475:	bf 73 00 00 00 00 00 00	r3 = r7
    1476:	79 a2 e8 ff 00 00 00 00	r2 = *(u64 *)(r10 - 0x18)
    1477:	0f 23 00 00 00 00 00 00	r3 += r2
    1478:	b7 02 00 00 00 00 00 00	r2 = 0x0
    1479:	79 84 18 00 00 00 00 00	r4 = *(u64 *)(r8 + 0x18)
    1480:	15 04 1a 00 00 00 00 00	if r4 == 0x0 goto +0x1a <custom_panic+0x2af0>
    1481:	b7 06 00 00 00 00 00 00	r6 = 0x0
    1482:	79 a7 f0 ff 00 00 00 00	r7 = *(u64 *)(r10 - 0x10)
    1483:	bf 79 00 00 00 00 00 00	r9 = r7
    1484:	1d 39 38 00 00 00 00 00	if r9 == r3 goto +0x38 <custom_panic+0x2c00>
    1485:	bf 97 00 00 00 00 00 00	r7 = r9
    1486:	07 07 00 00 01 00 00 00	r7 += 0x1
    1487:	71 95 00 00 00 00 00 00	r5 = *(u8 *)(r9 + 0x0)
    1488:	bf 50 00 00 00 00 00 00	r0 = r5
    1489:	67 00 00 00 38 00 00 00	r0 <<= 0x38
    1490:	c7 00 00 00 38 00 00 00	r0 s>>= 0x38
    1491:	65 00 0b 00 ff ff ff ff	if r0 s> -0x1 goto +0xb <custom_panic+0x2ad0>
    1492:	bf 97 00 00 00 00 00 00	r7 = r9
    1493:	07 07 00 00 02 00 00 00	r7 += 0x2
    1494:	bf 50 00 00 00 00 00 00	r0 = r5
    1495:	b7 05 00 00 e0 00 00 00	r5 = 0xe0
    1496:	2d 05 06 00 00 00 00 00	if r5 > r0 goto +0x6 <custom_panic+0x2ad0>
    1497:	bf 97 00 00 00 00 00 00	r7 = r9
    1498:	07 07 00 00 03 00 00 00	r7 += 0x3
    1499:	b7 05 00 00 f0 00 00 00	r5 = 0xf0
    1500:	2d 05 02 00 00 00 00 00	if r5 > r0 goto +0x2 <custom_panic+0x2ad0>
    1501:	bf 97 00 00 00 00 00 00	r7 = r9
    1502:	07 07 00 00 04 00 00 00	r7 += 0x4
    1503:	07 06 00 00 01 00 00 00	r6 += 0x1
    1504:	1f 92 00 00 00 00 00 00	r2 -= r9
    1505:	0f 72 00 00 00 00 00 00	r2 += r7
    1506:	2d 64 e8 ff 00 00 00 00	if r4 > r6 goto -0x18 <custom_panic+0x2a30>
    1507:	1d 37 21 00 00 00 00 00	if r7 == r3 goto +0x21 <custom_panic+0x2c00>
    1508:	71 73 00 00 00 00 00 00	r3 = *(u8 *)(r7 + 0x0)
    1509:	bf 34 00 00 00 00 00 00	r4 = r3
    1510:	67 04 00 00 38 00 00 00	r4 <<= 0x38
    1511:	c7 04 00 00 38 00 00 00	r4 s>>= 0x38
    1512:	65 04 02 00 ff ff ff ff	if r4 s> -0x1 goto +0x2 <custom_panic+0x2b30>
    1513:	b7 04 00 00 e0 00 00 00	r4 = 0xe0
    1514:	2d 34 00 00 00 00 00 00	if r4 > r3 goto +0x0 <custom_panic+0x2b30>
    1515:	79 a0 e8 ff 00 00 00 00	r0 = *(u64 *)(r10 - 0x18)
    1516:	79 a6 f0 ff 00 00 00 00	r6 = *(u64 *)(r10 - 0x10)
    1517:	15 02 10 00 00 00 00 00	if r2 == 0x0 goto +0x10 <custom_panic+0x2bc8>
    1518:	2d 20 07 00 00 00 00 00	if r0 > r2 goto +0x7 <custom_panic+0x2b88>
    1519:	b7 03 00 00 00 00 00 00	r3 = 0x0
    1520:	1d 02 0d 00 00 00 00 00	if r2 == r0 goto +0xd <custom_panic+0x2bc8>
    1521:	05 00 0d 00 00 00 00 00	goto +0xd <custom_panic+0x2bd0>
    1522:	79 81 20 00 00 00 00 00	r1 = *(u64 *)(r8 + 0x20)
    1523:	79 84 28 00 00 00 00 00	r4 = *(u64 *)(r8 + 0x28)
    1524:	79 44 18 00 00 00 00 00	r4 = *(u64 *)(r4 + 0x18)
    1525:	05 00 3f 00 00 00 00 00	goto +0x3f <custom_panic+0x2d80>
    1526:	bf 64 00 00 00 00 00 00	r4 = r6
    1527:	0f 24 00 00 00 00 00 00	r4 += r2
    1528:	b7 03 00 00 00 00 00 00	r3 = 0x0
    1529:	71 44 00 00 00 00 00 00	r4 = *(u8 *)(r4 + 0x0)
    1530:	67 04 00 00 38 00 00 00	r4 <<= 0x38
    1531:	c7 04 00 00 38 00 00 00	r4 s>>= 0x38
    1532:	b7 05 00 00 c0 ff ff ff	r5 = -0x40
    1533:	6d 45 01 00 00 00 00 00	if r5 s> r4 goto +0x1 <custom_panic+0x2bd0>
    1534:	bf 63 00 00 00 00 00 00	r3 = r6
    1535:	15 03 01 00 00 00 00 00	if r3 == 0x0 goto +0x1 <custom_panic+0x2be0>
    1536:	bf 20 00 00 00 00 00 00	r0 = r2
    1537:	7b 0a e8 ff 00 00 00 00	*(u64 *)(r10 - 0x18) = r0
    1538:	15 03 01 00 00 00 00 00	if r3 == 0x0 goto +0x1 <custom_panic+0x2bf8>
    1539:	bf 36 00 00 00 00 00 00	r6 = r3
    1540:	7b 6a f0 ff 00 00 00 00	*(u64 *)(r10 - 0x10) = r6
    1541:	55 01 06 00 00 00 00 00	if r1 != 0x0 goto +0x6 <custom_panic+0x2c38>
    1542:	79 81 20 00 00 00 00 00	r1 = *(u64 *)(r8 + 0x20)
    1543:	79 82 28 00 00 00 00 00	r2 = *(u64 *)(r8 + 0x28)
    1544:	79 24 18 00 00 00 00 00	r4 = *(u64 *)(r2 + 0x18)
    1545:	79 a2 f0 ff 00 00 00 00	r2 = *(u64 *)(r10 - 0x10)
    1546:	79 a3 e8 ff 00 00 00 00	r3 = *(u64 *)(r10 - 0x18)
    1547:	05 00 29 00 00 00 00 00	goto +0x29 <custom_panic+0x2d80>
    1548:	79 87 08 00 00 00 00 00	r7 = *(u64 *)(r8 + 0x8)
    1549:	b7 01 00 00 20 00 00 00	r1 = 0x20
    1550:	79 a6 e8 ff 00 00 00 00	r6 = *(u64 *)(r10 - 0x18)
    1551:	79 a9 f0 ff 00 00 00 00	r9 = *(u64 *)(r10 - 0x10)
    1552:	2d 61 04 00 00 00 00 00	if r1 > r6 goto +0x4 <custom_panic+0x2c80>
    1553:	bf 91 00 00 00 00 00 00	r1 = r9
    1554:	bf 62 00 00 00 00 00 00	r2 = r6
    1555:	85 10 00 00 58 00 00 00	call 0x58
    1556:	05 00 09 00 00 00 00 00	goto +0x9 <custom_panic+0x2cc8>
    1557:	b7 00 00 00 00 00 00 00	r0 = 0x0
    1558:	15 06 07 00 00 00 00 00	if r6 == 0x0 goto +0x7 <custom_panic+0x2cc8>
    1559:	bf 91 00 00 00 00 00 00	r1 = r9
    1560:	bf 62 00 00 00 00 00 00	r2 = r6
    1561:	05 00 0f 00 00 00 00 00	goto +0xf <custom_panic+0x2d20>
    1562:	0f 30 00 00 00 00 00 00	r0 += r3
    1563:	07 01 00 00 01 00 00 00	r1 += 0x1
    1564:	07 02 00 00 ff ff ff ff	r2 += -0x1
    1565:	55 02 0b 00 00 00 00 00	if r2 != 0x0 goto +0xb <custom_panic+0x2d20>
    1566:	3d 70 11 00 00 00 00 00	if r0 >= r7 goto +0x11 <custom_panic+0x2d58>
    1567:	1f 07 00 00 00 00 00 00	r7 -= r0
    1568:	b7 06 00 00 00 00 00 00	r6 = 0x0
    1569:	71 81 38 00 00 00 00 00	r1 = *(u8 *)(r8 + 0x38)
    1570:	65 01 17 00 01 00 00 00	if r1 s> 0x1 goto +0x17 <custom_panic+0x2da8>
    1571:	7b 7a e0 ff 00 00 00 00	*(u64 *)(r10 - 0x20) = r7
    1572:	15 01 1c 00 00 00 00 00	if r1 == 0x0 goto +0x1c <custom_panic+0x2de0>
    1573:	b7 01 00 00 00 00 00 00	r1 = 0x0
    1574:	7b 1a e0 ff 00 00 00 00	*(u64 *)(r10 - 0x20) = r1
    1575:	bf 76 00 00 00 00 00 00	r6 = r7
    1576:	05 00 18 00 00 00 00 00	goto +0x18 <custom_panic+0x2de0>
    1577:	71 14 00 00 00 00 00 00	r4 = *(u8 *)(r1 + 0x0)
    1578:	67 04 00 00 38 00 00 00	r4 <<= 0x38
    1579:	c7 04 00 00 38 00 00 00	r4 s>>= 0x38
    1580:	b7 03 00 00 01 00 00 00	r3 = 0x1
    1581:	65 04 ec ff bf ff ff ff	if r4 s> -0x41 goto -0x14 <custom_panic+0x2ca8>
    1582:	b7 03 00 00 00 00 00 00	r3 = 0x0
    1583:	05 00 ea ff 00 00 00 00	goto -0x16 <custom_panic+0x2ca8>
    1584:	79 81 20 00 00 00 00 00	r1 = *(u64 *)(r8 + 0x20)
    1585:	79 82 28 00 00 00 00 00	r2 = *(u64 *)(r8 + 0x28)
    1586:	79 24 18 00 00 00 00 00	r4 = *(u64 *)(r2 + 0x18)
    1587:	bf 92 00 00 00 00 00 00	r2 = r9
    1588:	bf 63 00 00 00 00 00 00	r3 = r6
    1589:	8d 00 00 00 04 00 00 00	callx r0
    1590:	bf 07 00 00 00 00 00 00	r7 = r0
    1591:	57 07 00 00 01 00 00 00	r7 &= 0x1
    1592:	bf 70 00 00 00 00 00 00	r0 = r7
    1593:	95 00 00 00 00 00 00 00	exit
    1594:	15 01 01 00 02 00 00 00	if r1 == 0x2 goto +0x1 <custom_panic+0x2db8>
    1595:	05 00 04 00 00 00 00 00	goto +0x4 <custom_panic+0x2dd8>
    1596:	bf 76 00 00 00 00 00 00	r6 = r7
    1597:	77 06 00 00 01 00 00 00	r6 >>= 0x1
    1598:	07 07 00 00 01 00 00 00	r7 += 0x1
    1599:	77 07 00 00 01 00 00 00	r7 >>= 0x1
    1600:	7b 7a e0 ff 00 00 00 00	*(u64 *)(r10 - 0x20) = r7
    1601:	07 06 00 00 01 00 00 00	r6 += 0x1
    1602:	61 89 30 00 00 00 00 00	r9 = *(u32 *)(r8 + 0x30)
    1603:	79 81 28 00 00 00 00 00	r1 = *(u64 *)(r8 + 0x28)
    1604:	7b 1a f8 ff 00 00 00 00	*(u64 *)(r10 - 0x8) = r1
    1605:	79 88 20 00 00 00 00 00	r8 = *(u64 *)(r8 + 0x20)
    1606:	b7 07 00 00 01 00 00 00	r7 = 0x1
    1607:	07 06 00 00 ff ff ff ff	r6 += -0x1
    1608:	15 06 07 00 00 00 00 00	if r6 == 0x0 goto +0x7 <custom_panic+0x2e58>
    1609:	79 a1 f8 ff 00 00 00 00	r1 = *(u64 *)(r10 - 0x8)
    1610:	79 13 20 00 00 00 00 00	r3 = *(u64 *)(r1 + 0x20)
    1611:	bf 81 00 00 00 00 00 00	r1 = r8
    1612:	bf 92 00 00 00 00 00 00	r2 = r9
    1613:	8d 00 00 00 03 00 00 00	callx r0
    1614:	55 00 e8 ff 00 00 00 00	if r0 != 0x0 goto -0x18 <custom_panic+0x2d90>
    1615:	05 00 f7 ff 00 00 00 00	goto -0x9 <custom_panic+0x2e10>
    1616:	b7 07 00 00 01 00 00 00	r7 = 0x1
    1617:	bf 91 00 00 00 00 00 00	r1 = r9
    1618:	15 01 e4 ff 00 00 11 00	if r1 == 0x110000 goto -0x1c <custom_panic+0x2d90>
    1619:	79 a1 f8 ff 00 00 00 00	r1 = *(u64 *)(r10 - 0x8)
    1620:	79 14 18 00 00 00 00 00	r4 = *(u64 *)(r1 + 0x18)
    1621:	bf 81 00 00 00 00 00 00	r1 = r8
    1622:	79 a2 f0 ff 00 00 00 00	r2 = *(u64 *)(r10 - 0x10)
    1623:	79 a3 e8 ff 00 00 00 00	r3 = *(u64 *)(r10 - 0x18)
    1624:	8d 00 00 00 04 00 00 00	callx r0
    1625:	55 00 dd ff 00 00 00 00	if r0 != 0x0 goto -0x23 <custom_panic+0x2d90>
    1626:	b7 06 00 00 00 00 00 00	r6 = 0x0
    1627:	79 a7 e0 ff 00 00 00 00	r7 = *(u64 *)(r10 - 0x20)
    1628:	bf 71 00 00 00 00 00 00	r1 = r7
    1629:	1d 67 09 00 00 00 00 00	if r7 == r6 goto +0x9 <custom_panic+0x2f10>
    1630:	79 a1 f8 ff 00 00 00 00	r1 = *(u64 *)(r10 - 0x8)
    1631:	79 13 20 00 00 00 00 00	r3 = *(u64 *)(r1 + 0x20)
    1632:	bf 81 00 00 00 00 00 00	r1 = r8
    1633:	bf 92 00 00 00 00 00 00	r2 = r9
    1634:	8d 00 00 00 03 00 00 00	callx r0
    1635:	07 06 00 00 01 00 00 00	r6 += 0x1
    1636:	15 00 f7 ff 00 00 00 00	if r0 == 0x0 goto -0x9 <custom_panic+0x2eb8>
    1637:	07 06 00 00 ff ff ff ff	r6 += -0x1
    1638:	bf 61 00 00 00 00 00 00	r1 = r6
    1639:	bf 72 00 00 00 00 00 00	r2 = r7
    1640:	b7 07 00 00 01 00 00 00	r7 = 0x1
    1641:	2d 12 cd ff 00 00 00 00	if r2 > r1 goto -0x33 <custom_panic+0x2d90>
    1642:	b7 07 00 00 00 00 00 00	r7 = 0x0
    1643:	05 00 cb ff 00 00 00 00	goto -0x35 <custom_panic+0x2d90>
    1644:	bf 17 00 00 00 00 00 00	r7 = r1
    1645:	07 07 00 00 07 00 00 00	r7 += 0x7
    1646:	57 07 00 00 f8 ff ff ff	r7 &= -0x8
    1647:	bf 74 00 00 00 00 00 00	r4 = r7
    1648:	1f 14 00 00 00 00 00 00	r4 -= r1
    1649:	2d 24 89 00 00 00 00 00	if r4 > r2 goto +0x89 <custom_panic+0x33b0>
    1650:	bf 25 00 00 00 00 00 00	r5 = r2
    1651:	1f 45 00 00 00 00 00 00	r5 -= r4
    1652:	b7 03 00 00 08 00 00 00	r3 = 0x8
    1653:	2d 53 85 00 00 00 00 00	if r3 > r5 goto +0x85 <custom_panic+0x33b0>
    1654:	7b 4a f8 ff 00 00 00 00	*(u64 *)(r10 - 0x8) = r4
    1655:	bf 53 00 00 00 00 00 00	r3 = r5
    1656:	57 03 00 00 07 00 00 00	r3 &= 0x7
    1657:	b7 02 00 00 00 00 00 00	r2 = 0x0
    1658:	b7 04 00 00 00 00 00 00	r4 = 0x0
    1659:	1d 17 07 00 00 00 00 00	if r7 == r1 goto +0x7 <custom_panic+0x2ff0>
    1660:	bf 16 00 00 00 00 00 00	r6 = r1
    1661:	1f 76 00 00 00 00 00 00	r6 -= r7
    1662:	bf 17 00 00 00 00 00 00	r7 = r1
    1663:	05 00 0c 00 00 00 00 00	goto +0xc <custom_panic+0x3038>
    1664:	0f 94 00 00 00 00 00 00	r4 += r9
    1665:	07 07 00 00 01 00 00 00	r7 += 0x1
    1666:	55 08 09 00 01 00 00 00	if r8 != 0x1 goto +0x9 <custom_panic+0x3038>
    1667:	79 a0 f8 ff 00 00 00 00	r0 = *(u64 *)(r10 - 0x8)
    1668:	0f 01 00 00 00 00 00 00	r1 += r0
    1669:	15 03 15 00 00 00 00 00	if r3 == 0x0 goto +0x15 <custom_panic+0x30b0>
    1670:	bf 52 00 00 00 00 00 00	r2 = r5
    1671:	57 02 00 00 f8 ff ff ff	r2 &= -0x8
    1672:	bf 10 00 00 00 00 00 00	r0 = r1
    1673:	0f 20 00 00 00 00 00 00	r0 += r2
    1674:	b7 02 00 00 00 00 00 00	r2 = 0x0
    1675:	05 00 14 00 00 00 00 00	goto +0x14 <custom_panic+0x30d8>
    1676:	71 70 00 00 00 00 00 00	r0 = *(u8 *)(r7 + 0x0)
    1677:	67 00 00 00 38 00 00 00	r0 <<= 0x38
    1678:	c7 00 00 00 38 00 00 00	r0 s>>= 0x38
    1679:	b7 08 00 00 01 00 00 00	r8 = 0x1
    1680:	b7 09 00 00 01 00 00 00	r9 = 0x1
    1681:	65 00 01 00 bf ff ff ff	if r0 s> -0x41 goto +0x1 <custom_panic+0x3070>
    1682:	b7 09 00 00 00 00 00 00	r9 = 0x0
    1683:	07 06 00 00 01 00 00 00	r6 += 0x1
    1684:	15 06 eb ff 00 00 00 00	if r6 == 0x0 goto -0x15 <custom_panic+0x2fd8>
    1685:	b7 08 00 00 00 00 00 00	r8 = 0x0
    1686:	05 00 e9 ff 00 00 00 00	goto -0x17 <custom_panic+0x2fd8>
    1687:	0f 62 00 00 00 00 00 00	r2 += r6
    1688:	07 00 00 00 01 00 00 00	r0 += 0x1
    1689:	07 03 00 00 ff ff ff ff	r3 += -0x1
    1690:	55 03 05 00 00 00 00 00	if r3 != 0x0 goto +0x5 <custom_panic+0x30d8>
    1691:	77 05 00 00 03 00 00 00	r5 >>= 0x3
    1692:	0f 42 00 00 00 00 00 00	r2 += r4
    1693:	18 08 00 00 01 01 01 01 00 00 00 00 01 01 01 01	r8 = 0x101010101010101 ll
    1695:	05 00 47 00 00 00 00 00	goto +0x47 <custom_panic+0x3310>
    1696:	71 07 00 00 00 00 00 00	r7 = *(u8 *)(r0 + 0x0)
    1697:	67 07 00 00 38 00 00 00	r7 <<= 0x38
    1698:	c7 07 00 00 38 00 00 00	r7 s>>= 0x38
    1699:	b7 06 00 00 01 00 00 00	r6 = 0x1
    1700:	65 07 f2 ff bf ff ff ff	if r7 s> -0x41 goto -0xe <custom_panic+0x3090>
    1701:	b7 06 00 00 00 00 00 00	r6 = 0x0
    1702:	05 00 f0 ff 00 00 00 00	goto -0x10 <custom_panic+0x3090>
    1703:	15 05 22 00 00 00 00 00	if r5 == 0x0 goto +0x22 <custom_panic+0x3228>
    1704:	79 56 00 00 00 00 00 00	r6 = *(u64 *)(r5 + 0x0)
    1705:	bf 67 00 00 00 00 00 00	r7 = r6
    1706:	77 07 00 00 06 00 00 00	r7 >>= 0x6
    1707:	a7 06 00 00 ff ff ff ff	r6 ^= -0x1
    1708:	77 06 00 00 07 00 00 00	r6 >>= 0x7
    1709:	4f 76 00 00 00 00 00 00	r6 |= r7
    1710:	5f 86 00 00 00 00 00 00	r6 &= r8
    1711:	0f 26 00 00 00 00 00 00	r6 += r2
    1712:	79 52 08 00 00 00 00 00	r2 = *(u64 *)(r5 + 0x8)
    1713:	bf 27 00 00 00 00 00 00	r7 = r2
    1714:	77 07 00 00 06 00 00 00	r7 >>= 0x6
    1715:	a7 02 00 00 ff ff ff ff	r2 ^= -0x1
    1716:	77 02 00 00 07 00 00 00	r2 >>= 0x7
    1717:	4f 72 00 00 00 00 00 00	r2 |= r7
    1718:	5f 82 00 00 00 00 00 00	r2 &= r8
    1719:	0f 62 00 00 00 00 00 00	r2 += r6
    1720:	79 56 10 00 00 00 00 00	r6 = *(u64 *)(r5 + 0x10)
    1721:	bf 67 00 00 00 00 00 00	r7 = r6
    1722:	77 07 00 00 06 00 00 00	r7 >>= 0x6
    1723:	a7 06 00 00 ff ff ff ff	r6 ^= -0x1
    1724:	77 06 00 00 07 00 00 00	r6 >>= 0x7
    1725:	4f 76 00 00 00 00 00 00	r6 |= r7
    1726:	5f 86 00 00 00 00 00 00	r6 &= r8
    1727:	0f 26 00 00 00 00 00 00	r6 += r2
    1728:	79 52 18 00 00 00 00 00	r2 = *(u64 *)(r5 + 0x18)
    1729:	bf 27 00 00 00 00 00 00	r7 = r2
    1730:	77 07 00 00 06 00 00 00	r7 >>= 0x6
    1731:	a7 02 00 00 ff ff ff ff	r2 ^= -0x1
    1732:	77 02 00 00 07 00 00 00	r2 >>= 0x7
    1733:	4f 72 00 00 00 00 00 00	r2 |= r7
    1734:	5f 82 00 00 00 00 00 00	r2 &= r8
    1735:	0f 62 00 00 00 00 00 00	r2 += r6
    1736:	07 05 00 00 20 00 00 00	r5 += 0x20
    1737:	5d 15 dd ff 00 00 00 00	if r5 != r1 goto -0x23 <custom_panic+0x3110>
    1738:	bf 95 00 00 00 00 00 00	r5 = r9
    1739:	67 05 00 00 03 00 00 00	r5 <<= 0x3
    1740:	bf 31 00 00 00 00 00 00	r1 = r3
    1741:	0f 51 00 00 00 00 00 00	r1 += r5
    1742:	bf 45 00 00 00 00 00 00	r5 = r4
    1743:	1f 95 00 00 00 00 00 00	r5 -= r9
    1744:	57 09 00 00 03 00 00 00	r9 &= 0x3
    1745:	bf 26 00 00 00 00 00 00	r6 = r2
    1746:	18 07 00 00 ff 00 ff 00 00 00 00 00 ff 00 ff 00	r7 = 0xff00ff00ff00ff ll
    1748:	5f 76 00 00 00 00 00 00	r6 &= r7
    1749:	77 02 00 00 08 00 00 00	r2 >>= 0x8
    1750:	5f 72 00 00 00 00 00 00	r2 &= r7
    1751:	0f 62 00 00 00 00 00 00	r2 += r6
    1752:	18 06 00 00 01 00 01 00 00 00 00 00 01 00 01 00	r6 = 0x1000100010001 ll
    1754:	2f 62 00 00 00 00 00 00	r2 *= r6
    1755:	77 02 00 00 30 00 00 00	r2 >>= 0x30
    1756:	0f 02 00 00 00 00 00 00	r2 += r0
    1757:	15 09 09 00 00 00 00 00	if r9 == 0x0 goto +0x9 <custom_panic+0x3310>
    1758:	b7 00 00 00 00 00 00 00	r0 = 0x0
    1759:	15 03 3c 00 00 00 00 00	if r3 == 0x0 goto +0x3c <custom_panic+0x34b8>
    1760:	79 a1 f8 ff 00 00 00 00	r1 = *(u64 *)(r10 - 0x8)
    1761:	67 01 00 00 03 00 00 00	r1 <<= 0x3
    1762:	7b 1a f8 ff 00 00 00 00	*(u64 *)(r10 - 0x8) = r1
    1763:	b7 01 00 00 c0 00 00 00	r1 = 0xc0
    1764:	2d 41 23 00 00 00 00 00	if r1 > r4 goto +0x23 <custom_panic+0x3418>
    1765:	b7 04 00 00 c0 00 00 00	r4 = 0xc0
    1766:	05 00 21 00 00 00 00 00	goto +0x21 <custom_panic+0x3418>
    1767:	bf 20 00 00 00 00 00 00	r0 = r2
    1768:	bf 54 00 00 00 00 00 00	r4 = r5
    1769:	bf 13 00 00 00 00 00 00	r3 = r1
    1770:	15 04 3d 00 00 00 00 00	if r4 == 0x0 goto +0x3d <custom_panic+0x3518>
    1771:	b7 01 00 00 c0 00 00 00	r1 = 0xc0
    1772:	bf 49 00 00 00 00 00 00	r9 = r4
    1773:	2d 41 01 00 00 00 00 00	if r1 > r4 goto +0x1 <custom_panic+0x3350>
    1774:	b7 09 00 00 c0 00 00 00	r9 = 0xc0
    1775:	bf 91 00 00 00 00 00 00	r1 = r9
    1776:	57 01 00 00 fc 00 00 00	r1 &= 0xfc
    1777:	b7 02 00 00 00 00 00 00	r2 = 0x0
    1778:	7b 1a f8 ff 00 00 00 00	*(u64 *)(r10 - 0x8) = r1
    1779:	15 01 d6 ff 00 00 00 00	if r1 == 0x0 goto -0x2a <custom_panic+0x3228>
    1780:	79 a2 f8 ff 00 00 00 00	r2 = *(u64 *)(r10 - 0x8)
    1781:	67 02 00 00 03 00 00 00	r2 <<= 0x3
    1782:	bf 31 00 00 00 00 00 00	r1 = r3
    1783:	0f 21 00 00 00 00 00 00	r1 += r2
    1784:	b7 02 00 00 00 00 00 00	r2 = 0x0
    1785:	bf 35 00 00 00 00 00 00	r5 = r3
    1786:	05 00 ac ff 00 00 00 00	goto -0x54 <custom_panic+0x3110>
    1787:	b7 00 00 00 00 00 00 00	r0 = 0x0
    1788:	15 02 2b 00 00 00 00 00	if r2 == 0x0 goto +0x2b <custom_panic+0x3518>
    1789:	71 14 00 00 00 00 00 00	r4 = *(u8 *)(r1 + 0x0)
    1790:	67 04 00 00 38 00 00 00	r4 <<= 0x38
    1791:	c7 04 00 00 38 00 00 00	r4 s>>= 0x38
    1792:	b7 03 00 00 01 00 00 00	r3 = 0x1
    1793:	65 04 01 00 bf ff ff ff	if r4 s> -0x41 goto +0x1 <custom_panic+0x33f0>
    1794:	b7 03 00 00 00 00 00 00	r3 = 0x0
    1795:	0f 30 00 00 00 00 00 00	r0 += r3
    1796:	07 01 00 00 01 00 00 00	r1 += 0x1
    1797:	07 02 00 00 ff ff ff ff	r2 += -0x1
    1798:	15 02 21 00 00 00 00 00	if r2 == 0x0 goto +0x21 <custom_panic+0x3518>
    1799:	05 00 f5 ff 00 00 00 00	goto -0xb <custom_panic+0x33c0>
    1800:	79 a1 f8 ff 00 00 00 00	r1 = *(u64 *)(r10 - 0x8)
    1801:	0f 13 00 00 00 00 00 00	r3 += r1
    1802:	b7 05 00 00 00 00 00 00	r5 = 0x0
    1803:	57 04 00 00 03 00 00 00	r4 &= 0x3
    1804:	67 04 00 00 03 00 00 00	r4 <<= 0x3
    1805:	18 01 00 00 01 01 01 01 00 00 00 00 01 01 01 01	r1 = 0x101010101010101 ll
    1807:	79 30 00 00 00 00 00 00	r0 = *(u64 *)(r3 + 0x0)
    1808:	bf 06 00 00 00 00 00 00	r6 = r0
    1809:	77 06 00 00 06 00 00 00	r6 >>= 0x6
    1810:	a7 00 00 00 ff ff ff ff	r0 ^= -0x1
    1811:	77 00 00 00 07 00 00 00	r0 >>= 0x7
    1812:	4f 60 00 00 00 00 00 00	r0 |= r6
    1813:	5f 10 00 00 00 00 00 00	r0 &= r1
    1814:	0f 50 00 00 00 00 00 00	r0 += r5
    1815:	07 03 00 00 08 00 00 00	r3 += 0x8
    1816:	07 04 00 00 f8 ff ff ff	r4 += -0x8
    1817:	bf 05 00 00 00 00 00 00	r5 = r0
    1818:	15 04 01 00 00 00 00 00	if r4 == 0x0 goto +0x1 <custom_panic+0x34b8>
    1819:	05 00 f3 ff 00 00 00 00	goto -0xd <custom_panic+0x3450>
    1820:	18 01 00 00 ff 00 ff 00 00 00 00 00 ff 00 ff 00	r1 = 0xff00ff00ff00ff ll
    1822:	bf 03 00 00 00 00 00 00	r3 = r0
    1823:	5f 13 00 00 00 00 00 00	r3 &= r1
    1824:	77 00 00 00 08 00 00 00	r0 >>= 0x8
    1825:	5f 10 00 00 00 00 00 00	r0 &= r1
    1826:	0f 30 00 00 00 00 00 00	r0 += r3
    1827:	18 01 00 00 01 00 01 00 00 00 00 00 01 00 01 00	r1 = 0x1000100010001 ll
    1829:	2f 10 00 00 00 00 00 00	r0 *= r1
    1830:	77 00 00 00 30 00 00 00	r0 >>= 0x30
    1831:	0f 20 00 00 00 00 00 00	r0 += r2
    1832:	95 00 00 00 00 00 00 00	exit
    1833:	b7 04 00 00 27 00 00 00	r4 = 0x27
    1834:	b7 05 00 00 10 27 00 00	r5 = 0x2710
    1835:	2d 15 20 00 00 00 00 00	if r5 > r1 goto +0x20 <custom_panic+0x3638>
    1836:	b7 04 00 00 00 00 00 00	r4 = 0x0
    1837:	bf 15 00 00 00 00 00 00	r5 = r1
    1838:	37 01 00 00 10 27 00 00	r1 /= 0x2710
    1839:	bf 16 00 00 00 00 00 00	r6 = r1
    1840:	27 06 00 00 10 27 00 00	r6 *= 0x2710
    1841:	bf 50 00 00 00 00 00 00	r0 = r5
    1842:	1f 60 00 00 00 00 00 00	r0 -= r6
    1843:	bf 06 00 00 00 00 00 00	r6 = r0
    1844:	57 06 00 00 ff ff 00 00	r6 &= 0xffff
    1845:	37 06 00 00 64 00 00 00	r6 /= 0x64
    1846:	bf 67 00 00 00 00 00 00	r7 = r6
    1847:	27 07 00 00 64 00 00 00	r7 *= 0x64
    1848:	1f 70 00 00 00 00 00 00	r0 -= r7
    1849:	bf a7 00 00 00 00 00 00	r7 = r10
    1850:	07 07 00 00 d9 ff ff ff	r7 += -0x27
    1851:	0f 47 00 00 00 00 00 00	r7 += r4
    1852:	67 06 00 00 01 00 00 00	r6 <<= 0x1
    1853:	18 08 00 00 8d 3f 00 00 00 00 00 00 00 00 00 00	r8 = 0x3f8d ll
    1855:	0f 68 00 00 00 00 00 00	r8 += r6
    1856:	69 86 00 00 00 00 00 00	r6 = *(u16 *)(r8 + 0x0)
    1857:	6b 67 23 00 00 00 00 00	*(u16 *)(r7 + 0x23) = r6
    1858:	67 00 00 00 01 00 00 00	r0 <<= 0x1
    1859:	57 00 00 00 fe ff 00 00	r0 &= 0xfffe
    1860:	18 06 00 00 8d 3f 00 00 00 00 00 00 00 00 00 00	r6 = 0x3f8d ll
    1862:	0f 06 00 00 00 00 00 00	r6 += r0
    1863:	69 60 00 00 00 00 00 00	r0 = *(u16 *)(r6 + 0x0)
    1864:	6b 07 25 00 00 00 00 00	*(u16 *)(r7 + 0x25) = r0
    1865:	07 04 00 00 fc ff ff ff	r4 += -0x4
    1866:	25 05 e2 ff ff e0 f5 05	if r5 > 0x5f5e0ff goto -0x1e <custom_panic+0x3540>
    1867:	07 04 00 00 27 00 00 00	r4 += 0x27
    1868:	25 01 0a 00 63 00 00 00	if r1 > 0x63 goto +0xa <custom_panic+0x3690>
    1869:	b7 05 00 00 0a 00 00 00	r5 = 0xa
    1870:	2d 15 01 00 00 00 00 00	if r5 > r1 goto +0x1 <custom_panic+0x3658>
    1871:	05 00 1a 00 00 00 00 00	goto +0x1a <custom_panic+0x3728>
    1872:	07 04 00 00 ff ff ff ff	r4 += -0x1
    1873:	bf a5 00 00 00 00 00 00	r5 = r10
    1874:	07 05 00 00 d9 ff ff ff	r5 += -0x27
    1875:	0f 45 00 00 00 00 00 00	r5 += r4
    1876:	07 01 00 00 30 00 00 00	r1 += 0x30
    1877:	73 15 00 00 00 00 00 00	*(u8 *)(r5 + 0x0) = r1
    1878:	05 00 1d 00 00 00 00 00	goto +0x1d <custom_panic+0x3778>
    1879:	bf 15 00 00 00 00 00 00	r5 = r1
    1880:	57 05 00 00 ff ff 00 00	r5 &= 0xffff
    1881:	37 05 00 00 64 00 00 00	r5 /= 0x64
    1882:	bf 50 00 00 00 00 00 00	r0 = r5
    1883:	27 00 00 00 64 00 00 00	r0 *= 0x64
    1884:	1f 01 00 00 00 00 00 00	r1 -= r0
    1885:	67 01 00 00 01 00 00 00	r1 <<= 0x1
    1886:	57 01 00 00 fe ff 00 00	r1 &= 0xfffe
    1887:	18 00 00 00 8d 3f 00 00 00 00 00 00 00 00 00 00	r0 = 0x3f8d ll
    1889:	0f 10 00 00 00 00 00 00	r0 += r1
    1890:	07 04 00 00 fe ff ff ff	r4 += -0x2
    1891:	bf a1 00 00 00 00 00 00	r1 = r10
    1892:	07 01 00 00 d9 ff ff ff	r1 += -0x27
    1893:	0f 41 00 00 00 00 00 00	r1 += r4
    1894:	69 00 00 00 00 00 00 00	r0 = *(u16 *)(r0 + 0x0)
    1895:	6b 01 00 00 00 00 00 00	*(u16 *)(r1 + 0x0) = r0
    1896:	bf 51 00 00 00 00 00 00	r1 = r5
    1897:	05 00 e3 ff 00 00 00 00	goto -0x1d <custom_panic+0x3640>
    1898:	67 01 00 00 01 00 00 00	r1 <<= 0x1
    1899:	18 05 00 00 8d 3f 00 00 00 00 00 00 00 00 00 00	r5 = 0x3f8d ll
    1901:	0f 15 00 00 00 00 00 00	r5 += r1
    1902:	07 04 00 00 fe ff ff ff	r4 += -0x2
    1903:	bf a1 00 00 00 00 00 00	r1 = r10
    1904:	07 01 00 00 d9 ff ff ff	r1 += -0x27
    1905:	0f 41 00 00 00 00 00 00	r1 += r4
    1906:	69 55 00 00 00 00 00 00	r5 = *(u16 *)(r5 + 0x0)
    1907:	6b 51 00 00 00 00 00 00	*(u16 *)(r1 + 0x0) = r5
    1908:	bf a1 00 00 00 00 00 00	r1 = r10
    1909:	07 01 00 00 d9 ff ff ff	r1 += -0x27
    1910:	0f 41 00 00 00 00 00 00	r1 += r4
    1911:	7b 1a 00 f0 00 00 00 00	*(u64 *)(r10 - 0x1000) = r1
    1912:	b7 01 00 00 27 00 00 00	r1 = 0x27
    1913:	1f 41 00 00 00 00 00 00	r1 -= r4
    1914:	7b 1a 08 f0 00 00 00 00	*(u64 *)(r10 - 0xff8) = r1
    1915:	bf a5 00 00 00 00 00 00	r5 = r10
    1916:	bf 31 00 00 00 00 00 00	r1 = r3
    1917:	18 03 00 00 48 3f 00 00 00 00 00 00 00 00 00 00	r3 = 0x3f48 ll
    1919:	b7 04 00 00 00 00 00 00	r4 = 0x0
    1920:	85 10 00 00 5b fd ff ff	call -0x2a5
    1921:	95 00 00 00 00 00 00 00	exit

    1922:	bf 23 00 00 00 00 00 00	r3 = r2
    1923:	61 11 00 00 00 00 00 00	r1 = *(u32 *)(r1 + 0x0)
    1924:	b7 02 00 00 01 00 00 00	r2 = 0x1
    1925:	85 10 00 00 a3 ff ff ff	call -0x5d
    1926:	95 00 00 00 00 00 00 00	exit

    1927:	bf 23 00 00 00 00 00 00	r3 = r2
    1928:	79 11 00 00 00 00 00 00	r1 = *(u64 *)(r1 + 0x0)
    1929:	b7 02 00 00 01 00 00 00	r2 = 0x1
    1930:	85 10 00 00 9e ff ff ff	call -0x62
    1931:	95 00 00 00 00 00 00 00	exit

    1932:	79 21 20 00 00 00 00 00	r1 = *(u64 *)(r2 + 0x20)
    1933:	79 22 28 00 00 00 00 00	r2 = *(u64 *)(r2 + 0x28)
    1934:	79 24 18 00 00 00 00 00	r4 = *(u64 *)(r2 + 0x18)
    1935:	18 02 00 00 55 40 00 00 00 00 00 00 00 00 00 00	r2 = 0x4055 ll
    1937:	b7 03 00 00 05 00 00 00	r3 = 0x5
    1938:	8d 00 00 00 04 00 00 00	callx r0
    1939:	95 00 00 00 00 00 00 00	exit

    1940:	79 13 00 00 00 00 00 00	r3 = *(u64 *)(r1 + 0x0)
    1941:	79 11 08 00 00 00 00 00	r1 = *(u64 *)(r1 + 0x8)
    1942:	79 14 18 00 00 00 00 00	r4 = *(u64 *)(r1 + 0x18)
    1943:	bf 31 00 00 00 00 00 00	r1 = r3
    1944:	8d 00 00 00 04 00 00 00	callx r0
    1945:	95 00 00 00 00 00 00 00	exit

    1946:	79 24 28 00 00 00 00 00	r4 = *(u64 *)(r2 + 0x28)
    1947:	79 22 20 00 00 00 00 00	r2 = *(u64 *)(r2 + 0x20)
    1948:	79 13 00 00 00 00 00 00	r3 = *(u64 *)(r1 + 0x0)
    1949:	bf 21 00 00 00 00 00 00	r1 = r2
    1950:	bf 42 00 00 00 00 00 00	r2 = r4
    1951:	85 10 00 00 b3 fc ff ff	call -0x34d
    1952:	95 00 00 00 00 00 00 00	exit

    1953:	bf 24 00 00 00 00 00 00	r4 = r2
    1954:	79 13 08 00 00 00 00 00	r3 = *(u64 *)(r1 + 0x8)
    1955:	79 12 00 00 00 00 00 00	r2 = *(u64 *)(r1 + 0x0)
    1956:	bf 41 00 00 00 00 00 00	r1 = r4
    1957:	85 10 00 00 13 fe ff ff	call -0x1ed
    1958:	95 00 00 00 00 00 00 00	exit

    1959:	bf 24 00 00 00 00 00 00	r4 = r2
    1960:	79 11 00 00 00 00 00 00	r1 = *(u64 *)(r1 + 0x0)
    1961:	79 13 08 00 00 00 00 00	r3 = *(u64 *)(r1 + 0x8)
    1962:	79 12 00 00 00 00 00 00	r2 = *(u64 *)(r1 + 0x0)
    1963:	bf 41 00 00 00 00 00 00	r1 = r4
    1964:	85 10 00 00 0c fe ff ff	call -0x1f4
    1965:	95 00 00 00 00 00 00 00	exit

    1966:	bf 16 00 00 00 00 00 00	r6 = r1
    1967:	bf 34 00 00 00 00 00 00	r4 = r3
    1968:	77 04 00 00 03 00 00 00	r4 >>= 0x3
    1969:	bf 41 00 00 00 00 00 00	r1 = r4
    1970:	27 01 00 00 f9 ff ff ff	r1 *= -0x7
    1971:	0f 31 00 00 00 00 00 00	r1 += r3
    1972:	25 01 18 00 0f 00 00 00	if r1 > 0xf goto +0x18 <custom_panic+0x3a40>
    1973:	b7 01 00 00 00 00 00 00	r1 = 0x0
    1974:	b7 05 00 00 08 00 00 00	r5 = 0x8
    1975:	2d 35 0a 00 00 00 00 00	if r5 > r3 goto +0xa <custom_panic+0x39e8>
    1976:	b7 05 00 00 00 00 00 00	r5 = 0x0
    1977:	bf 60 00 00 00 00 00 00	r0 = r6
    1978:	0f 10 00 00 00 00 00 00	r0 += r1
    1979:	bf 27 00 00 00 00 00 00	r7 = r2
    1980:	0f 17 00 00 00 00 00 00	r7 += r1
    1981:	79 77 00 00 00 00 00 00	r7 = *(u64 *)(r7 + 0x0)
    1982:	7b 70 00 00 00 00 00 00	*(u64 *)(r0 + 0x0) = r7
    1983:	07 01 00 00 08 00 00 00	r1 += 0x8
    1984:	07 05 00 00 01 00 00 00	r5 += 0x1
    1985:	2d 54 f7 ff 00 00 00 00	if r4 > r5 goto -0x9 <custom_panic+0x39a0>
    1986:	7d 31 08 00 00 00 00 00	if r1 s>= r3 goto +0x8 <custom_panic+0x3a30>
    1987:	bf 64 00 00 00 00 00 00	r4 = r6
    1988:	0f 14 00 00 00 00 00 00	r4 += r1
    1989:	bf 25 00 00 00 00 00 00	r5 = r2
    1990:	0f 15 00 00 00 00 00 00	r5 += r1
    1991:	71 55 00 00 00 00 00 00	r5 = *(u8 *)(r5 + 0x0)
    1992:	73 54 00 00 00 00 00 00	*(u8 *)(r4 + 0x0) = r5
    1993:	07 01 00 00 01 00 00 00	r1 += 0x1
    1994:	6d 13 f8 ff 00 00 00 00	if r3 s> r1 goto -0x8 <custom_panic+0x39f0>
    1995:	bf 60 00 00 00 00 00 00	r0 = r6
    1996:	95 00 00 00 00 00 00 00	exit

    1997:	bf 61 00 00 00 00 00 00	r1 = r6
    1998:	85 10 00 00 ff ff ff ff	call -0x1
    1999:	05 00 fb ff 00 00 00 00	goto -0x5 <custom_panic+0x3a30>
